---
triple:          'arm64-apple-darwin'
binary-path:     '/Users/jungmin/VscodeProjects/AlgorithmCpp/Boj2178'
relocations:
  - { offsetInCU: 0x3F, offset: 0x3F, size: 0x8, addend: 0x0, symName: _N, symObjAddr: 0x487C0, symBinAddr: 0x100010020, symSize: 0x0 }
  - { offsetInCU: 0x5B, offset: 0x5B, size: 0x8, addend: 0x0, symName: _M, symObjAddr: 0x487C4, symBinAddr: 0x100010024, symSize: 0x0 }
  - { offsetInCU: 0x70, offset: 0x70, size: 0x8, addend: 0x0, symName: _v, symObjAddr: 0x487C8, symBinAddr: 0x100010028, symSize: 0x0 }
  - { offsetInCU: 0x8EFB, offset: 0x8EFB, size: 0x8, addend: 0x0, symName: __ZNSt3__13minB7v160006IiEERKT_S3_S3_, symObjAddr: 0x46C, symBinAddr: 0x100003304, symSize: 0x2C }
  - { offsetInCU: 0x8F3E, offset: 0x8F3E, size: 0x8, addend: 0x0, symName: __ZNSt3__13minB7v160006IiNS_6__lessIiiEEEERKT_S5_S5_T0_, symObjAddr: 0x82C, symBinAddr: 0x1000036C4, symSize: 0x54 }
  - { offsetInCU: 0x8FD3, offset: 0x8FD3, size: 0x8, addend: 0x0, symName: __ZNSt3__1neB7v160006ERKNS_16__deque_iteratorI4NodePS1_RS1_PS2_lLl512EEES7_, symObjAddr: 0xD54, symBinAddr: 0x100003BEC, symSize: 0x34 }
  - { offsetInCU: 0x9010, offset: 0x9010, size: 0x8, addend: 0x0, symName: __ZNSt3__1eqB7v160006ERKNS_16__deque_iteratorI4NodePS1_RS1_PS2_lLl512EEES7_, symObjAddr: 0xFF4, symBinAddr: 0x100003E8C, symSize: 0x30 }
  - { offsetInCU: 0x904D, offset: 0x904D, size: 0x8, addend: 0x0, symName: __ZNSt3__119__libcpp_deallocateB7v160006EPvmm, symObjAddr: 0x10FC, symBinAddr: 0x100003F94, symSize: 0x30 }
  - { offsetInCU: 0x9095, offset: 0x9095, size: 0x8, addend: 0x0, symName: __ZNSt3__127__do_deallocate_handle_sizeB7v160006IJEEEvPvmDpT_, symObjAddr: 0x112C, symBinAddr: 0x100003FC4, symSize: 0x28 }
  - { offsetInCU: 0x90D3, offset: 0x90D3, size: 0x8, addend: 0x0, symName: __ZNSt3__124__libcpp_operator_deleteB7v160006IJPvEEEvDpT_, symObjAddr: 0x1154, symBinAddr: 0x100003FEC, symSize: 0x24 }
  - { offsetInCU: 0x9108, offset: 0x9108, size: 0x8, addend: 0x0, symName: __ZNSt3__112__to_addressB7v160006IP4NodeEEPT_S4_, symObjAddr: 0x13D8, symBinAddr: 0x100004270, symSize: 0x14 }
  - { offsetInCU: 0x913D, offset: 0x913D, size: 0x8, addend: 0x0, symName: __ZNSt3__119__debug_db_insert_cB7v160006INS_6vectorINS1_IiNS_9allocatorIiEEEENS2_IS4_EEEEEEvPT_, symObjAddr: 0x156C, symBinAddr: 0x100004404, symSize: 0x10 }
  - { offsetInCU: 0x916E, offset: 0x916E, size: 0x8, addend: 0x0, symName: __ZNSt3__118__debug_db_erase_cB7v160006INS_6vectorINS1_IiNS_9allocatorIiEEEENS2_IS4_EEEEEEvPT_, symObjAddr: 0x184C, symBinAddr: 0x1000046E4, symSize: 0x10 }
  - { offsetInCU: 0x919F, offset: 0x919F, size: 0x8, addend: 0x0, symName: __ZNSt3__112__to_addressB7v160006INS_6vectorIiNS_9allocatorIiEEEEEEPT_S6_, symObjAddr: 0x1990, symBinAddr: 0x100004828, symSize: 0x14 }
  - { offsetInCU: 0x91D4, offset: 0x91D4, size: 0x8, addend: 0x0, symName: __ZNSt3__13maxB7v160006ImEERKT_S3_S3_, symObjAddr: 0x2AD0, symBinAddr: 0x100005968, symSize: 0x2C }
  - { offsetInCU: 0x9670, offset: 0x9670, size: 0x8, addend: 0x0, symName: __ZNSt3__14swapB7v160006IPP4NodeEENS_9enable_ifIXaasr21is_move_constructibleIT_EE5valuesr18is_move_assignableIS5_EE5valueEvE4typeERS5_S8_, symObjAddr: 0x30E0, symBinAddr: 0x100005F78, symSize: 0x3C }
  - { offsetInCU: 0x96C1, offset: 0x96C1, size: 0x8, addend: 0x0, symName: __ZNSt3__14moveB7v160006IPP4NodeS3_EET0_T_S5_S4_, symObjAddr: 0x31C4, symBinAddr: 0x10000605C, symSize: 0x40 }
  - { offsetInCU: 0x9737, offset: 0x9737, size: 0x8, addend: 0x0, symName: __ZNSt3__16__moveB7v160006INS_17_ClassicAlgPolicyEPP4NodeS4_S4_EENS_4pairIT0_T2_EES6_T1_S7_, symObjAddr: 0x3368, symBinAddr: 0x100006200, symSize: 0x44 }
  - { offsetInCU: 0x97A3, offset: 0x97A3, size: 0x8, addend: 0x0, symName: __ZNSt3__123__dispatch_copy_or_moveB7v160006INS_17_ClassicAlgPolicyENS_11__move_loopIS1_EENS_14__move_trivialEPP4NodeS7_S7_EENS_4pairIT2_T4_EES9_T3_SA_, symObjAddr: 0x33AC, symBinAddr: 0x100006244, symSize: 0x44 }
  - { offsetInCU: 0x9821, offset: 0x9821, size: 0x8, addend: 0x0, symName: __ZNSt3__121__unwrap_and_dispatchB7v160006INS_10__overloadINS_11__move_loopINS_17_ClassicAlgPolicyEEENS_14__move_trivialEEEPP4NodeS9_S9_Li0EEENS_4pairIT0_T2_EESB_T1_SC_, symObjAddr: 0x33F0, symBinAddr: 0x100006288, symSize: 0xB4 }
  - { offsetInCU: 0x98AF, offset: 0x98AF, size: 0x8, addend: 0x0, symName: __ZNSt3__114__unwrap_rangeB7v160006IPP4NodeS3_EENS_4pairIT0_S5_EET_S7_, symObjAddr: 0x34A4, symBinAddr: 0x10000633C, symSize: 0x60 }
  - { offsetInCU: 0x9A73, offset: 0x9A73, size: 0x8, addend: 0x0, symName: __ZNSt3__113__unwrap_iterB7v160006IPP4NodeNS_18__unwrap_iter_implIS3_Lb1EEELi0EEEDTclsrT0_8__unwrapclsr3stdE7declvalIT_EEEES7_, symObjAddr: 0x354C, symBinAddr: 0x1000063E4, symSize: 0x24 }
  - { offsetInCU: 0x9AB7, offset: 0x9AB7, size: 0x8, addend: 0x0, symName: __ZNSt3__19make_pairB7v160006IPP4NodeS3_EENS_4pairINS_18__unwrap_ref_decayIT_E4typeENS5_IT0_E4typeEEEOS6_OS9_, symObjAddr: 0x3570, symBinAddr: 0x100006408, symSize: 0x38 }
  - { offsetInCU: 0x9B06, offset: 0x9B06, size: 0x8, addend: 0x0, symName: __ZNSt3__114__rewrap_rangeB7v160006IPP4NodeS3_EET_S4_T0_, symObjAddr: 0x35A8, symBinAddr: 0x100006440, symSize: 0x2C }
  - { offsetInCU: 0x9B52, offset: 0x9B52, size: 0x8, addend: 0x0, symName: __ZNSt3__113__rewrap_iterB7v160006IPP4NodeS3_NS_18__unwrap_iter_implIS3_Lb1EEEEET_S6_T0_, symObjAddr: 0x35D4, symBinAddr: 0x10000646C, symSize: 0x3C }
  - { offsetInCU: 0x9BA7, offset: 0x9BA7, size: 0x8, addend: 0x0, symName: __ZNSt3__119__copy_trivial_implB7v160006IP4NodeS2_EENS_4pairIPT_PT0_EES5_S5_S7_, symObjAddr: 0x3610, symBinAddr: 0x1000064A8, symSize: 0x84 }
  - { offsetInCU: 0x9C0F, offset: 0x9C0F, size: 0x8, addend: 0x0, symName: __ZNSt3__19make_pairB7v160006IRPP4NodeS3_EENS_4pairINS_18__unwrap_ref_decayIT_E4typeENS6_IT0_E4typeEEEOS7_OSA_, symObjAddr: 0x3694, symBinAddr: 0x10000652C, symSize: 0x38 }
  - { offsetInCU: 0x9CB1, offset: 0x9CB1, size: 0x8, addend: 0x0, symName: __ZNSt3__18distanceB7v160006INS_13move_iteratorIPP4NodeEEEENS_15iterator_traitsIT_E15difference_typeES7_S7_, symObjAddr: 0x3820, symBinAddr: 0x1000066B8, symSize: 0x3C }
  - { offsetInCU: 0x9CF4, offset: 0x9CF4, size: 0x8, addend: 0x0, symName: __ZNSt3__110__distanceB7v160006INS_13move_iteratorIPP4NodeEEEENS_15iterator_traitsIT_E15difference_typeES7_S7_NS_26random_access_iterator_tagE, symObjAddr: 0x3958, symBinAddr: 0x1000067F0, symSize: 0x30 }
  - { offsetInCU: 0x9D41, offset: 0x9D41, size: 0x8, addend: 0x0, symName: __ZNSt3__1miB7v160006IPP4NodeS3_EEDTmicldtfp_4baseEcldtfp0_4baseEERKNS_13move_iteratorIT_EERKNS5_IT0_EE, symObjAddr: 0x3988, symBinAddr: 0x100006820, symSize: 0x48 }
  - { offsetInCU: 0x9D90, offset: 0x9D90, size: 0x8, addend: 0x0, symName: __ZNSt3__117__libcpp_allocateB7v160006Emm, symObjAddr: 0x3BAC, symBinAddr: 0x100006A44, symSize: 0x28 }
  - { offsetInCU: 0x9DCD, offset: 0x9DCD, size: 0x8, addend: 0x0, symName: __ZNSt3__121__libcpp_operator_newB7v160006IJmEEEPvDpT_, symObjAddr: 0x3BE8, symBinAddr: 0x100006A80, symSize: 0x24 }
  - { offsetInCU: 0x9E06, offset: 0x9E06, size: 0x8, addend: 0x0, symName: __ZNSt3__113move_backwardB7v160006IPP4NodeS3_EET0_T_S5_S4_, symObjAddr: 0x3C0C, symBinAddr: 0x100006AA4, symSize: 0x40 }
  - { offsetInCU: 0x9E60, offset: 0x9E60, size: 0x8, addend: 0x0, symName: __ZNSt3__115__move_backwardB7v160006INS_17_ClassicAlgPolicyEPP4NodeS4_S4_EENS_4pairIT0_T2_EES6_T1_S7_, symObjAddr: 0x3C4C, symBinAddr: 0x100006AE4, symSize: 0x44 }
  - { offsetInCU: 0x9ECC, offset: 0x9ECC, size: 0x8, addend: 0x0, symName: __ZNSt3__123__dispatch_copy_or_moveB7v160006INS_17_ClassicAlgPolicyENS_20__move_backward_loopIS1_EENS_23__move_backward_trivialEPP4NodeS7_S7_EENS_4pairIT2_T4_EES9_T3_SA_, symObjAddr: 0x3C90, symBinAddr: 0x100006B28, symSize: 0x44 }
  - { offsetInCU: 0x9F4A, offset: 0x9F4A, size: 0x8, addend: 0x0, symName: __ZNSt3__121__unwrap_and_dispatchB7v160006INS_10__overloadINS_20__move_backward_loopINS_17_ClassicAlgPolicyEEENS_23__move_backward_trivialEEEPP4NodeS9_S9_Li0EEENS_4pairIT0_T2_EESB_T1_SC_, symObjAddr: 0x3CD4, symBinAddr: 0x100006B6C, symSize: 0xB4 }
  - { offsetInCU: 0xA01E, offset: 0xA01E, size: 0x8, addend: 0x0, symName: __ZNSt3__128__copy_backward_trivial_implB7v160006IP4NodeS2_EENS_4pairIPT_PT0_EES5_S5_S7_, symObjAddr: 0x3DD0, symBinAddr: 0x100006C68, symSize: 0x94 }
  - { offsetInCU: 0xA086, offset: 0xA086, size: 0x8, addend: 0x0, symName: __ZNSt3__19make_pairB7v160006IRPP4NodeS4_EENS_4pairINS_18__unwrap_ref_decayIT_E4typeENS6_IT0_E4typeEEEOS7_OSA_, symObjAddr: 0x3E64, symBinAddr: 0x100006CFC, symSize: 0x38 }
  - { offsetInCU: 0xA0D5, offset: 0xA0D5, size: 0x8, addend: 0x0, symName: __ZNSt3__13maxB7v160006ImNS_6__lessImmEEEERKT_S5_S5_T0_, symObjAddr: 0x3F0C, symBinAddr: 0x100006DA4, symSize: 0x54 }
  - { offsetInCU: 0xA16A, offset: 0xA16A, size: 0x8, addend: 0x0, symName: __ZNSt3__119__allocate_at_leastB7v160006INS_9allocatorIP4NodeEEEENS_19__allocation_resultINS_16allocator_traitsIT_E7pointerEEERS7_m, symObjAddr: 0x40A4, symBinAddr: 0x100006F3C, symSize: 0x40 }
  - { offsetInCU: 0xA1AD, offset: 0xA1AD, size: 0x8, addend: 0x0, symName: __ZNSt3__112__to_addressB7v160006I4NodeEEPT_S3_, symObjAddr: 0x4840, symBinAddr: 0x1000076D8, symSize: 0x14 }
  - { offsetInCU: 0xA1E2, offset: 0xA1E2, size: 0x8, addend: 0x0, symName: __ZNSt3__119__debug_db_insert_cB7v160006INS_6vectorIiNS_9allocatorIiEEEEEEvPT_, symObjAddr: 0x49F0, symBinAddr: 0x100007888, symSize: 0x10 }
  - { offsetInCU: 0xA213, offset: 0xA213, size: 0x8, addend: 0x0, symName: __ZNSt3__118__debug_db_erase_cB7v160006INS_6vectorIiNS_9allocatorIiEEEEEEvPT_, symObjAddr: 0x4CB4, symBinAddr: 0x100007B4C, symSize: 0x10 }
  - { offsetInCU: 0xA244, offset: 0xA244, size: 0x8, addend: 0x0, symName: __ZNSt3__112__to_addressB7v160006IiEEPT_S2_, symObjAddr: 0x4DF8, symBinAddr: 0x100007C90, symSize: 0x14 }
  - { offsetInCU: 0xA279, offset: 0xA279, size: 0x8, addend: 0x0, symName: __ZNSt3__13minB7v160006ImEERKT_S3_S3_, symObjAddr: 0x5558, symBinAddr: 0x1000083F0, symSize: 0x2C }
  - { offsetInCU: 0xA4BD, offset: 0xA4BD, size: 0x8, addend: 0x0, symName: __ZNSt3__13minB7v160006ImNS_6__lessImmEEEERKT_S5_S5_T0_, symObjAddr: 0x55E4, symBinAddr: 0x10000847C, symSize: 0x54 }
  - { offsetInCU: 0xA517, offset: 0xA517, size: 0x8, addend: 0x0, symName: __ZNSt3__120__throw_length_errorB7v160006EPKc, symObjAddr: 0x568C, symBinAddr: 0x100008524, symSize: 0x64 }
  - { offsetInCU: 0xA53F, offset: 0xA53F, size: 0x8, addend: 0x0, symName: __ZNSt3__119__allocate_at_leastB7v160006INS_9allocatorIiEEEENS_19__allocation_resultINS_16allocator_traitsIT_E7pointerEEERS5_m, symObjAddr: 0x5880, symBinAddr: 0x100008718, symSize: 0x40 }
  - { offsetInCU: 0xA582, offset: 0xA582, size: 0x8, addend: 0x0, symName: __ZNSt3__142__uninitialized_allocator_move_if_noexceptB7v160006INS_9allocatorIiEENS_16reverse_iteratorIPiEES5_ivEET1_RT_T0_S9_S6_, symObjAddr: 0x5A34, symBinAddr: 0x1000088CC, symSize: 0x78 }
  - { offsetInCU: 0xA5FF, offset: 0xA5FF, size: 0x8, addend: 0x0, symName: __ZNSt3__14swapB7v160006IPiEENS_9enable_ifIXaasr21is_move_constructibleIT_EE5valuesr18is_move_assignableIS3_EE5valueEvE4typeERS3_S6_, symObjAddr: 0x5AF8, symBinAddr: 0x100008990, symSize: 0x3C }
  - { offsetInCU: 0xA650, offset: 0xA650, size: 0x8, addend: 0x0, symName: __ZNSt3__125__debug_db_invalidate_allB7v160006INS_6vectorIiNS_9allocatorIiEEEEEEvPT_, symObjAddr: 0x5BE0, symBinAddr: 0x100008A78, symSize: 0x10 }
  - { offsetInCU: 0xA681, offset: 0xA681, size: 0x8, addend: 0x0, symName: __ZNSt3__14moveB7v160006INS_16reverse_iteratorIPiEES3_EET0_T_S5_S4_, symObjAddr: 0x5BF0, symBinAddr: 0x100008A88, symSize: 0x78 }
  - { offsetInCU: 0xA6DB, offset: 0xA6DB, size: 0x8, addend: 0x0, symName: __ZNSt3__16__moveB7v160006INS_17_ClassicAlgPolicyENS_16reverse_iteratorIPiEES4_S4_EENS_4pairIT0_T2_EES6_T1_S7_, symObjAddr: 0x5C68, symBinAddr: 0x100008B00, symSize: 0x64 }
  - { offsetInCU: 0xA747, offset: 0xA747, size: 0x8, addend: 0x0, symName: __ZNSt3__123__dispatch_copy_or_moveB7v160006INS_17_ClassicAlgPolicyENS_11__move_loopIS1_EENS_14__move_trivialENS_16reverse_iteratorIPiEES7_S7_EENS_4pairIT2_T4_EES9_T3_SA_, symObjAddr: 0x5CCC, symBinAddr: 0x100008B64, symSize: 0x64 }
  - { offsetInCU: 0xA7C5, offset: 0xA7C5, size: 0x8, addend: 0x0, symName: __ZNSt3__121__unwrap_and_dispatchB7v160006INS_10__overloadINS_11__move_loopINS_17_ClassicAlgPolicyEEENS_14__move_trivialEEENS_16reverse_iteratorIPiEES9_S9_Li0EEENS_4pairIT0_T2_EESB_T1_SC_, symObjAddr: 0x5D30, symBinAddr: 0x100008BC8, symSize: 0x12C }
  - { offsetInCU: 0xA855, offset: 0xA855, size: 0x8, addend: 0x0, symName: __ZNSt3__114__unwrap_rangeB7v160006INS_16reverse_iteratorIPiEES3_EENS_4pairIT0_S5_EET_S7_, symObjAddr: 0x5E5C, symBinAddr: 0x100008CF4, symSize: 0x84 }
  - { offsetInCU: 0xA9D0, offset: 0xA9D0, size: 0x8, addend: 0x0, symName: __ZNSt3__113__unwrap_iterB7v160006INS_16reverse_iteratorIPiEENS_18__unwrap_iter_implIS3_Lb0EEELi0EEEDTclsrT0_8__unwrapclsr3stdE7declvalIT_EEEES7_, symObjAddr: 0x5F80, symBinAddr: 0x100008E18, symSize: 0x44 }
  - { offsetInCU: 0xAA14, offset: 0xAA14, size: 0x8, addend: 0x0, symName: __ZNSt3__19make_pairB7v160006INS_16reverse_iteratorIPiEES3_EENS_4pairINS_18__unwrap_ref_decayIT_E4typeENS5_IT0_E4typeEEEOS6_OS9_, symObjAddr: 0x5FC4, symBinAddr: 0x100008E5C, symSize: 0x38 }
  - { offsetInCU: 0xAA63, offset: 0xAA63, size: 0x8, addend: 0x0, symName: __ZNSt3__114__rewrap_rangeB7v160006INS_16reverse_iteratorIPiEES3_EET_S4_T0_, symObjAddr: 0x5FFC, symBinAddr: 0x100008E94, symSize: 0x5C }
  - { offsetInCU: 0xAAAF, offset: 0xAAAF, size: 0x8, addend: 0x0, symName: __ZNSt3__113__rewrap_iterB7v160006INS_16reverse_iteratorIPiEES3_NS_18__unwrap_iter_implIS3_Lb0EEEEET_S6_T0_, symObjAddr: 0x6058, symBinAddr: 0x100008EF0, symSize: 0x74 }
  - { offsetInCU: 0xAB04, offset: 0xAB04, size: 0x8, addend: 0x0, symName: __ZNSt3__1neB7v160006IPiS1_EEbRKNS_16reverse_iteratorIT_EERKNS2_IT0_EE, symObjAddr: 0x60CC, symBinAddr: 0x100008F64, symSize: 0x48 }
  - { offsetInCU: 0xAC02, offset: 0xAC02, size: 0x8, addend: 0x0, symName: __ZNSt3__122__make_exception_guardB7v160006INS_6vectorIiNS_9allocatorIiEEE16__destroy_vectorEEENS_28__exception_guard_exceptionsIT_EES7_, symObjAddr: 0x6A90, symBinAddr: 0x100009928, symSize: 0x40 }
  - { offsetInCU: 0xAC37, offset: 0xAC37, size: 0x8, addend: 0x0, symName: __ZNSt3__130__uninitialized_allocator_copyB7v160006INS_9allocatorIiEEPiS3_S3_EET2_RT_T0_T1_S4_, symObjAddr: 0x6D04, symBinAddr: 0x100009B9C, symSize: 0xF4 }
  - { offsetInCU: 0xACD5, offset: 0xACD5, size: 0x8, addend: 0x0, symName: __ZNSt3__122__make_exception_guardB7v160006INS_29_AllocatorDestroyRangeReverseINS_9allocatorIiEEPiEEEENS_28__exception_guard_exceptionsIT_EES7_, symObjAddr: 0x6DF8, symBinAddr: 0x100009C90, symSize: 0x4C }
  - { offsetInCU: 0xAD0B, offset: 0xAD0B, size: 0x8, addend: 0x0, symName: __ZNSt3__119__allocator_destroyB7v160006INS_9allocatorIiEENS_16reverse_iteratorIPiEES5_EEvRT_T0_T1_, symObjAddr: 0x7080, symBinAddr: 0x100009F18, symSize: 0x70 }
  - { offsetInCU: 0xAD6E, offset: 0xAD6E, size: 0x8, addend: 0x0, symName: __ZNSt3__112__to_addressB7v160006INS_16reverse_iteratorIPiEEvEENS_5decayIDTclsr19__to_address_helperIT_EE6__callclsr3stdE7declvalIRKS5_EEEEE4typeES7_, symObjAddr: 0x70F0, symBinAddr: 0x100009F88, symSize: 0x24 }
  - { offsetInCU: 0xADCD, offset: 0xADCD, size: 0x8, addend: 0x0, symName: __ZNSt3__119__allocate_at_leastB7v160006INS_9allocatorINS_6vectorIiNS1_IiEEEEEEEENS_19__allocation_resultINS_16allocator_traitsIT_E7pointerEEERS8_m, symObjAddr: 0x7650, symBinAddr: 0x10000A4E8, symSize: 0x40 }
  - { offsetInCU: 0xAE10, offset: 0xAE10, size: 0x8, addend: 0x0, symName: __ZNSt3__142__uninitialized_allocator_move_if_noexceptB7v160006INS_9allocatorINS_6vectorIiNS1_IiEEEEEENS_16reverse_iteratorIPS4_EES8_S8_EET2_RT_T0_T1_S9_, symObjAddr: 0x7808, symBinAddr: 0x10000A6A0, symSize: 0x12C }
  - { offsetInCU: 0xAEB0, offset: 0xAEB0, size: 0x8, addend: 0x0, symName: __ZNSt3__14swapB7v160006IPNS_6vectorIiNS_9allocatorIiEEEEEENS_9enable_ifIXaasr21is_move_constructibleIT_EE5valuesr18is_move_assignableIS7_EE5valueEvE4typeERS7_SA_, symObjAddr: 0x7980, symBinAddr: 0x10000A818, symSize: 0x3C }
  - { offsetInCU: 0xAF01, offset: 0xAF01, size: 0x8, addend: 0x0, symName: __ZNSt3__125__debug_db_invalidate_allB7v160006INS_6vectorINS1_IiNS_9allocatorIiEEEENS2_IS4_EEEEEEvPT_, symObjAddr: 0x7A84, symBinAddr: 0x10000A91C, symSize: 0x10 }
  - { offsetInCU: 0xAF32, offset: 0xAF32, size: 0x8, addend: 0x0, symName: __ZNSt3__122__make_exception_guardB7v160006INS_29_AllocatorDestroyRangeReverseINS_9allocatorINS_6vectorIiNS2_IiEEEEEENS_16reverse_iteratorIPS5_EEEEEENS_28__exception_guard_exceptionsIT_EESC_, symObjAddr: 0x7A94, symBinAddr: 0x10000A92C, symSize: 0x4C }
  - { offsetInCU: 0xAF68, offset: 0xAF68, size: 0x8, addend: 0x0, symName: __ZNSt3__1neB7v160006IPNS_6vectorIiNS_9allocatorIiEEEES5_EEbRKNS_16reverse_iteratorIT_EERKNS6_IT0_EE, symObjAddr: 0x7B24, symBinAddr: 0x10000A9BC, symSize: 0x48 }
  - { offsetInCU: 0xAFB4, offset: 0xAFB4, size: 0x8, addend: 0x0, symName: __ZNSt3__112__to_addressB7v160006INS_16reverse_iteratorIPNS_6vectorIiNS_9allocatorIiEEEEEEvEENS_5decayIDTclsr19__to_address_helperIT_EE6__callclsr3stdE7declvalIRKS9_EEEEE4typeESB_, symObjAddr: 0x7BA0, symBinAddr: 0x10000AA38, symSize: 0x24 }
  - { offsetInCU: 0xAFEA, offset: 0xAFEA, size: 0x8, addend: 0x0, symName: __ZNSt3__115__debug_db_swapB7v160006INS_6vectorIiNS_9allocatorIiEEEEEEvPT_S6_, symObjAddr: 0x7E30, symBinAddr: 0x10000ACC8, symSize: 0x14 }
  - { offsetInCU: 0xB052, offset: 0xB052, size: 0x8, addend: 0x0, symName: __ZNSt3__119__allocator_destroyB7v160006INS_9allocatorINS_6vectorIiNS1_IiEEEEEENS_16reverse_iteratorINS6_IPS4_EEEES9_EEvRT_T0_T1_, symObjAddr: 0x7FA4, symBinAddr: 0x10000AE3C, symSize: 0x70 }
  - { offsetInCU: 0xB0B7, offset: 0xB0B7, size: 0x8, addend: 0x0, symName: __ZNSt3__1neB7v160006INS_16reverse_iteratorIPNS_6vectorIiNS_9allocatorIiEEEEEES7_EEbRKNS1_IT_EERKNS1_IT0_EE, symObjAddr: 0x8050, symBinAddr: 0x10000AEE8, symSize: 0x60 }
  - { offsetInCU: 0xB103, offset: 0xB103, size: 0x8, addend: 0x0, symName: __ZNSt3__112__to_addressB7v160006INS_16reverse_iteratorINS1_IPNS_6vectorIiNS_9allocatorIiEEEEEEEEvEENS_5decayIDTclsr19__to_address_helperIT_EE6__callclsr3stdE7declvalIRKSA_EEEEE4typeESC_, symObjAddr: 0x80B0, symBinAddr: 0x10000AF48, symSize: 0x24 }
  - { offsetInCU: 0xB536, offset: 0xB536, size: 0x8, addend: 0x0, symName: __ZSt28__throw_bad_array_new_lengthB7v160006v, symObjAddr: 0x3B78, symBinAddr: 0x100006A10, symSize: 0x34 }
  - { offsetInCU: 0xB87A, offset: 0xB87A, size: 0x8, addend: 0x0, symName: _visit, symObjAddr: 0x487E0, symBinAddr: 0x100010040, symSize: 0x0 }
  - { offsetInCU: 0xB88F, offset: 0xB88F, size: 0x8, addend: 0x0, symName: _cnt, symObjAddr: 0x487F8, symBinAddr: 0x100010058, symSize: 0x0 }
  - { offsetInCU: 0xB8A4, offset: 0xB8A4, size: 0x8, addend: 0x0, symName: _dirX, symObjAddr: 0x886C, symBinAddr: 0x100010000, symSize: 0x0 }
  - { offsetInCU: 0xB8CC, offset: 0xB8CC, size: 0x8, addend: 0x0, symName: _dirY, symObjAddr: 0x887C, symBinAddr: 0x100010010, symSize: 0x0 }
  - { offsetInCU: 0xBC82, offset: 0xBC82, size: 0x8, addend: 0x0, symName: __ZNSt3__16vectorIiNS_9allocatorIiEEE26__swap_out_circular_bufferERNS_14__split_bufferIiRS2_EE, symObjAddr: 0x5398, symBinAddr: 0x100008230, symSize: 0x118 }
  - { offsetInCU: 0xBD18, offset: 0xBD18, size: 0x8, addend: 0x0, symName: __ZNSt3__16vectorINS0_IiNS_9allocatorIiEEEENS1_IS3_EEE26__swap_out_circular_bufferERNS_14__split_bufferIS3_RS4_EE, symObjAddr: 0x72D8, symBinAddr: 0x10000A170, symSize: 0x118 }
  - { offsetInCU: 0xDFAD, offset: 0xDFAD, size: 0x8, addend: 0x0, symName: __ZNSt3__16vectorINS0_IiNS_9allocatorIiEEEENS1_IS3_EEEC1B7v160006Ev, symObjAddr: 0x0, symBinAddr: 0x100002E98, symSize: 0x2C }
  - { offsetInCU: 0xDFD5, offset: 0xDFD5, size: 0x8, addend: 0x0, symName: __ZNSt3__16vectorINS0_IiNS_9allocatorIiEEEENS1_IS3_EEED1B7v160006Ev, symObjAddr: 0x2C, symBinAddr: 0x100002EC4, symSize: 0x2C }
  - { offsetInCU: 0xDFFD, offset: 0xDFFD, size: 0x8, addend: 0x0, symName: __Z3Bfsii, symObjAddr: 0x58, symBinAddr: 0x100002EF0, symSize: 0x2C0 }
  - { offsetInCU: 0xE0E6, offset: 0xE0E6, size: 0x8, addend: 0x0, symName: __ZNSt3__15queueI4NodeNS_5dequeIS1_NS_9allocatorIS1_EEEEEC1B7v160006Ev, symObjAddr: 0x318, symBinAddr: 0x1000031B0, symSize: 0x2C }
  - { offsetInCU: 0xE10E, offset: 0xE10E, size: 0x8, addend: 0x0, symName: __ZNSt3__16vectorINS0_IiNS_9allocatorIiEEEENS1_IS3_EEEixB7v160006Em, symObjAddr: 0x344, symBinAddr: 0x1000031DC, symSize: 0x2C }
  - { offsetInCU: 0xE144, offset: 0xE144, size: 0x8, addend: 0x0, symName: __ZNSt3__16vectorIiNS_9allocatorIiEEEixB7v160006Em, symObjAddr: 0x370, symBinAddr: 0x100003208, symSize: 0x24 }
  - { offsetInCU: 0xE17A, offset: 0xE17A, size: 0x8, addend: 0x0, symName: __ZNSt3__15queueI4NodeNS_5dequeIS1_NS_9allocatorIS1_EEEEE4pushB7v160006EOS1_, symObjAddr: 0x394, symBinAddr: 0x10000322C, symSize: 0x2C }
  - { offsetInCU: 0xE1AE, offset: 0xE1AE, size: 0x8, addend: 0x0, symName: __ZN4NodeC1Eii, symObjAddr: 0x3C0, symBinAddr: 0x100003258, symSize: 0x3C }
  - { offsetInCU: 0xE1F2, offset: 0xE1F2, size: 0x8, addend: 0x0, symName: __ZNKSt3__15queueI4NodeNS_5dequeIS1_NS_9allocatorIS1_EEEEE5emptyB7v160006Ev, symObjAddr: 0x3FC, symBinAddr: 0x100003294, symSize: 0x28 }
  - { offsetInCU: 0xE217, offset: 0xE217, size: 0x8, addend: 0x0, symName: __ZNSt3__15queueI4NodeNS_5dequeIS1_NS_9allocatorIS1_EEEEE5frontB7v160006Ev, symObjAddr: 0x424, symBinAddr: 0x1000032BC, symSize: 0x24 }
  - { offsetInCU: 0xE23C, offset: 0xE23C, size: 0x8, addend: 0x0, symName: __ZNSt3__15queueI4NodeNS_5dequeIS1_NS_9allocatorIS1_EEEEE3popB7v160006Ev, symObjAddr: 0x448, symBinAddr: 0x1000032E0, symSize: 0x24 }
  - { offsetInCU: 0xE261, offset: 0xE261, size: 0x8, addend: 0x0, symName: __ZNSt3__15queueI4NodeNS_5dequeIS1_NS_9allocatorIS1_EEEEED1Ev, symObjAddr: 0x498, symBinAddr: 0x100003330, symSize: 0x2C }
  - { offsetInCU: 0xE28D, offset: 0xE28D, size: 0x8, addend: 0x0, symName: _main, symObjAddr: 0x4C4, symBinAddr: 0x10000335C, symSize: 0x1A0 }
  - { offsetInCU: 0xE312, offset: 0xE312, size: 0x8, addend: 0x0, symName: __ZNSt3__16vectorIiNS_9allocatorIiEEEC1B7v160006Ev, symObjAddr: 0x664, symBinAddr: 0x1000034FC, symSize: 0x2C }
  - { offsetInCU: 0xE339, offset: 0xE339, size: 0x8, addend: 0x0, symName: __ZNSt3__16vectorIiNS_9allocatorIiEEE9push_backB7v160006ERKi, symObjAddr: 0x690, symBinAddr: 0x100003528, symSize: 0x6C }
  - { offsetInCU: 0xE36E, offset: 0xE36E, size: 0x8, addend: 0x0, symName: __ZNSt3__16vectorIiNS_9allocatorIiEEE9push_backB7v160006EOi, symObjAddr: 0x6FC, symBinAddr: 0x100003594, symSize: 0x6C }
  - { offsetInCU: 0xE3A3, offset: 0xE3A3, size: 0x8, addend: 0x0, symName: __ZNSt3__16vectorINS0_IiNS_9allocatorIiEEEENS1_IS3_EEE9push_backB7v160006ERKS3_, symObjAddr: 0x768, symBinAddr: 0x100003600, symSize: 0x6C }
  - { offsetInCU: 0xE3D9, offset: 0xE3D9, size: 0x8, addend: 0x0, symName: __ZNSt3__16vectorIiNS_9allocatorIiEEED1B7v160006Ev, symObjAddr: 0x7D4, symBinAddr: 0x10000366C, symSize: 0x2C }
  - { offsetInCU: 0xE401, offset: 0xE401, size: 0x8, addend: 0x0, symName: __ZN4NodeC2Eii, symObjAddr: 0x800, symBinAddr: 0x100003698, symSize: 0x2C }
  - { offsetInCU: 0xE450, offset: 0xE450, size: 0x8, addend: 0x0, symName: __ZNKSt3__16__lessIiiEclB7v160006ERKiS3_, symObjAddr: 0x880, symBinAddr: 0x100003718, symSize: 0x34 }
  - { offsetInCU: 0xE491, offset: 0xE491, size: 0x8, addend: 0x0, symName: __ZNSt3__15queueI4NodeNS_5dequeIS1_NS_9allocatorIS1_EEEEED2Ev, symObjAddr: 0x8B4, symBinAddr: 0x10000374C, symSize: 0x2C }
  - { offsetInCU: 0xE4BD, offset: 0xE4BD, size: 0x8, addend: 0x0, symName: __ZNSt3__15dequeI4NodeNS_9allocatorIS1_EEED1B7v160006Ev, symObjAddr: 0x8E0, symBinAddr: 0x100003778, symSize: 0x2C }
  - { offsetInCU: 0xE4E5, offset: 0xE4E5, size: 0x8, addend: 0x0, symName: __ZNSt3__15dequeI4NodeNS_9allocatorIS1_EEED2B7v160006Ev, symObjAddr: 0x90C, symBinAddr: 0x1000037A4, symSize: 0x9C }
  - { offsetInCU: 0xE539, offset: 0xE539, size: 0x8, addend: 0x0, symName: __ZNSt3__15dequeI4NodeNS_9allocatorIS1_EEE5clearEv, symObjAddr: 0x9A8, symBinAddr: 0x100003840, symSize: 0x180 }
  - { offsetInCU: 0xE594, offset: 0xE594, size: 0x8, addend: 0x0, symName: __ZNSt3__114__split_bufferIP4NodeNS_9allocatorIS2_EEE5beginB7v160006Ev, symObjAddr: 0xB28, symBinAddr: 0x1000039C0, symSize: 0x18 }
  - { offsetInCU: 0xE5B9, offset: 0xE5B9, size: 0x8, addend: 0x0, symName: __ZNSt3__114__split_bufferIP4NodeNS_9allocatorIS2_EEE3endB7v160006Ev, symObjAddr: 0xB40, symBinAddr: 0x1000039D8, symSize: 0x18 }
  - { offsetInCU: 0xE5DE, offset: 0xE5DE, size: 0x8, addend: 0x0, symName: __ZNSt3__116allocator_traitsINS_9allocatorI4NodeEEE10deallocateB7v160006ERS3_PS2_m, symObjAddr: 0xB58, symBinAddr: 0x1000039F0, symSize: 0x34 }
  - { offsetInCU: 0xE620, offset: 0xE620, size: 0x8, addend: 0x0, symName: __ZNSt3__15dequeI4NodeNS_9allocatorIS1_EEE7__allocB7v160006Ev, symObjAddr: 0xB8C, symBinAddr: 0x100003A24, symSize: 0x28 }
  - { offsetInCU: 0xE645, offset: 0xE645, size: 0x8, addend: 0x0, symName: __ZNSt3__114__split_bufferIP4NodeNS_9allocatorIS2_EEED1Ev, symObjAddr: 0xBB4, symBinAddr: 0x100003A4C, symSize: 0x2C }
  - { offsetInCU: 0xE670, offset: 0xE670, size: 0x8, addend: 0x0, symName: __ZNSt3__15dequeI4NodeNS_9allocatorIS1_EEE5beginB7v160006Ev, symObjAddr: 0xBE0, symBinAddr: 0x100003A78, symSize: 0xB8 }
  - { offsetInCU: 0xE6A4, offset: 0xE6A4, size: 0x8, addend: 0x0, symName: __ZNSt3__15dequeI4NodeNS_9allocatorIS1_EEE3endB7v160006Ev, symObjAddr: 0xC98, symBinAddr: 0x100003B30, symSize: 0xBC }
  - { offsetInCU: 0xE6E7, offset: 0xE6E7, size: 0x8, addend: 0x0, symName: __ZNSt3__116allocator_traitsINS_9allocatorI4NodeEEE7destroyB7v160006IS2_vEEvRS3_PT_, symObjAddr: 0xD94, symBinAddr: 0x100003C2C, symSize: 0x2C }
  - { offsetInCU: 0xE724, offset: 0xE724, size: 0x8, addend: 0x0, symName: __ZNKSt3__116__deque_iteratorI4NodePS1_RS1_PS2_lLl512EEdeB7v160006Ev, symObjAddr: 0xDC0, symBinAddr: 0x100003C58, symSize: 0x18 }
  - { offsetInCU: 0xE749, offset: 0xE749, size: 0x8, addend: 0x0, symName: __ZNSt3__116__deque_iteratorI4NodePS1_RS1_PS2_lLl512EEppB7v160006Ev, symObjAddr: 0xDD8, symBinAddr: 0x100003C70, symSize: 0x70 }
  - { offsetInCU: 0xE76E, offset: 0xE76E, size: 0x8, addend: 0x0, symName: __ZNSt3__15dequeI4NodeNS_9allocatorIS1_EEE6__sizeB7v160006Ev, symObjAddr: 0xE48, symBinAddr: 0x100003CE0, symSize: 0x28 }
  - { offsetInCU: 0xE793, offset: 0xE793, size: 0x8, addend: 0x0, symName: __ZNKSt3__114__split_bufferIP4NodeNS_9allocatorIS2_EEE4sizeB7v160006Ev, symObjAddr: 0xE70, symBinAddr: 0x100003D08, symSize: 0x28 }
  - { offsetInCU: 0xE7B8, offset: 0xE7B8, size: 0x8, addend: 0x0, symName: __ZNSt3__114__split_bufferIP4NodeNS_9allocatorIS2_EEE5frontB7v160006Ev, symObjAddr: 0xE98, symBinAddr: 0x100003D30, symSize: 0x18 }
  - { offsetInCU: 0xE7DD, offset: 0xE7DD, size: 0x8, addend: 0x0, symName: __ZNSt3__114__split_bufferIP4NodeNS_9allocatorIS2_EEE9pop_frontB7v160006Ev, symObjAddr: 0xEB0, symBinAddr: 0x100003D48, symSize: 0x2C }
  - { offsetInCU: 0xE802, offset: 0xE802, size: 0x8, addend: 0x0, symName: __ZNKSt3__114__split_bufferIP4NodeNS_9allocatorIS2_EEE5emptyB7v160006Ev, symObjAddr: 0xEDC, symBinAddr: 0x100003D74, symSize: 0x28 }
  - { offsetInCU: 0xE827, offset: 0xE827, size: 0x8, addend: 0x0, symName: __ZNSt3__116__deque_iteratorI4NodePS1_RS1_PS2_lLl512EEC1B7v160006ES4_S2_, symObjAddr: 0xF04, symBinAddr: 0x100003D9C, symSize: 0x3C }
  - { offsetInCU: 0xE86D, offset: 0xE86D, size: 0x8, addend: 0x0, symName: __ZNSt3__116__deque_iteratorI4NodePS1_RS1_PS2_lLl512EEC2B7v160006ES4_S2_, symObjAddr: 0xF40, symBinAddr: 0x100003DD8, symSize: 0x2C }
  - { offsetInCU: 0xE8B4, offset: 0xE8B4, size: 0x8, addend: 0x0, symName: __ZNKSt3__15dequeI4NodeNS_9allocatorIS1_EEE4sizeB7v160006Ev, symObjAddr: 0xF6C, symBinAddr: 0x100003E04, symSize: 0x28 }
  - { offsetInCU: 0xE8D9, offset: 0xE8D9, size: 0x8, addend: 0x0, symName: __ZNKSt3__15dequeI4NodeNS_9allocatorIS1_EEE6__sizeB7v160006Ev, symObjAddr: 0xF94, symBinAddr: 0x100003E2C, symSize: 0x28 }
  - { offsetInCU: 0xE8FE, offset: 0xE8FE, size: 0x8, addend: 0x0, symName: __ZNKSt3__117__compressed_pairImNS_9allocatorI4NodeEEE5firstB7v160006Ev, symObjAddr: 0xFBC, symBinAddr: 0x100003E54, symSize: 0x24 }
  - { offsetInCU: 0xE923, offset: 0xE923, size: 0x8, addend: 0x0, symName: __ZNKSt3__122__compressed_pair_elemImLi0ELb0EE5__getB7v160006Ev, symObjAddr: 0xFE0, symBinAddr: 0x100003E78, symSize: 0x14 }
  - { offsetInCU: 0xE948, offset: 0xE948, size: 0x8, addend: 0x0, symName: __ZNSt3__19allocatorI4NodeE7destroyB7v160006EPS1_, symObjAddr: 0x1024, symBinAddr: 0x100003EBC, symSize: 0x14 }
  - { offsetInCU: 0xE97B, offset: 0xE97B, size: 0x8, addend: 0x0, symName: __ZNSt3__117__compressed_pairImNS_9allocatorI4NodeEEE5firstB7v160006Ev, symObjAddr: 0x1038, symBinAddr: 0x100003ED0, symSize: 0x24 }
  - { offsetInCU: 0xE9A0, offset: 0xE9A0, size: 0x8, addend: 0x0, symName: __ZNSt3__122__compressed_pair_elemImLi0ELb0EE5__getB7v160006Ev, symObjAddr: 0x105C, symBinAddr: 0x100003EF4, symSize: 0x14 }
  - { offsetInCU: 0xE9C5, offset: 0xE9C5, size: 0x8, addend: 0x0, symName: __ZNSt3__114__split_bufferIP4NodeNS_9allocatorIS2_EEE19__destruct_at_beginB7v160006EPS2_, symObjAddr: 0x1070, symBinAddr: 0x100003F08, symSize: 0x2C }
  - { offsetInCU: 0xE9F8, offset: 0xE9F8, size: 0x8, addend: 0x0, symName: __ZNSt3__114__split_bufferIP4NodeNS_9allocatorIS2_EEE19__destruct_at_beginEPS2_NS_17integral_constantIbLb1EEE, symObjAddr: 0x109C, symBinAddr: 0x100003F34, symSize: 0x20 }
  - { offsetInCU: 0xEA37, offset: 0xEA37, size: 0x8, addend: 0x0, symName: __ZNSt3__19allocatorI4NodeE10deallocateB7v160006EPS1_m, symObjAddr: 0x10BC, symBinAddr: 0x100003F54, symSize: 0x40 }
  - { offsetInCU: 0xEA78, offset: 0xEA78, size: 0x8, addend: 0x0, symName: __ZNSt3__117__compressed_pairImNS_9allocatorI4NodeEEE6secondB7v160006Ev, symObjAddr: 0x1178, symBinAddr: 0x100004010, symSize: 0x24 }
  - { offsetInCU: 0xEA9D, offset: 0xEA9D, size: 0x8, addend: 0x0, symName: __ZNSt3__122__compressed_pair_elemINS_9allocatorI4NodeEELi1ELb1EE5__getB7v160006Ev, symObjAddr: 0x119C, symBinAddr: 0x100004034, symSize: 0x14 }
  - { offsetInCU: 0xEAC2, offset: 0xEAC2, size: 0x8, addend: 0x0, symName: __ZNSt3__114__split_bufferIP4NodeNS_9allocatorIS2_EEED2Ev, symObjAddr: 0x11B0, symBinAddr: 0x100004048, symSize: 0x8C }
  - { offsetInCU: 0xEAED, offset: 0xEAED, size: 0x8, addend: 0x0, symName: __ZNSt3__114__split_bufferIP4NodeNS_9allocatorIS2_EEE5clearB7v160006Ev, symObjAddr: 0x123C, symBinAddr: 0x1000040D4, symSize: 0x28 }
  - { offsetInCU: 0xEB12, offset: 0xEB12, size: 0x8, addend: 0x0, symName: __ZNSt3__116allocator_traitsINS_9allocatorIP4NodeEEE10deallocateB7v160006ERS4_PS3_m, symObjAddr: 0x1264, symBinAddr: 0x1000040FC, symSize: 0x34 }
  - { offsetInCU: 0xEB54, offset: 0xEB54, size: 0x8, addend: 0x0, symName: __ZNSt3__114__split_bufferIP4NodeNS_9allocatorIS2_EEE7__allocB7v160006Ev, symObjAddr: 0x1298, symBinAddr: 0x100004130, symSize: 0x28 }
  - { offsetInCU: 0xEB79, offset: 0xEB79, size: 0x8, addend: 0x0, symName: __ZNKSt3__114__split_bufferIP4NodeNS_9allocatorIS2_EEE8capacityB7v160006Ev, symObjAddr: 0x12C0, symBinAddr: 0x100004158, symSize: 0x40 }
  - { offsetInCU: 0xEB9E, offset: 0xEB9E, size: 0x8, addend: 0x0, symName: __ZNSt3__114__split_bufferIP4NodeNS_9allocatorIS2_EEE17__destruct_at_endB7v160006EPS2_, symObjAddr: 0x1300, symBinAddr: 0x100004198, symSize: 0x2C }
  - { offsetInCU: 0xEBD0, offset: 0xEBD0, size: 0x8, addend: 0x0, symName: __ZNSt3__114__split_bufferIP4NodeNS_9allocatorIS2_EEE17__destruct_at_endB7v160006EPS2_NS_17integral_constantIbLb0EEE, symObjAddr: 0x132C, symBinAddr: 0x1000041C4, symSize: 0x80 }
  - { offsetInCU: 0xEC0F, offset: 0xEC0F, size: 0x8, addend: 0x0, symName: __ZNSt3__116allocator_traitsINS_9allocatorIP4NodeEEE7destroyB7v160006IS3_vEEvRS4_PT_, symObjAddr: 0x13AC, symBinAddr: 0x100004244, symSize: 0x2C }
  - { offsetInCU: 0xEC4C, offset: 0xEC4C, size: 0x8, addend: 0x0, symName: __ZNSt3__19allocatorIP4NodeE7destroyB7v160006EPS2_, symObjAddr: 0x13EC, symBinAddr: 0x100004284, symSize: 0x14 }
  - { offsetInCU: 0xEC7F, offset: 0xEC7F, size: 0x8, addend: 0x0, symName: __ZNSt3__19allocatorIP4NodeE10deallocateB7v160006EPS2_m, symObjAddr: 0x1400, symBinAddr: 0x100004298, symSize: 0x40 }
  - { offsetInCU: 0xECC0, offset: 0xECC0, size: 0x8, addend: 0x0, symName: __ZNSt3__117__compressed_pairIPP4NodeNS_9allocatorIS2_EEE6secondB7v160006Ev, symObjAddr: 0x1440, symBinAddr: 0x1000042D8, symSize: 0x24 }
  - { offsetInCU: 0xECE5, offset: 0xECE5, size: 0x8, addend: 0x0, symName: __ZNSt3__122__compressed_pair_elemINS_9allocatorIP4NodeEELi1ELb1EE5__getB7v160006Ev, symObjAddr: 0x1464, symBinAddr: 0x1000042FC, symSize: 0x14 }
  - { offsetInCU: 0xED0A, offset: 0xED0A, size: 0x8, addend: 0x0, symName: __ZNKSt3__114__split_bufferIP4NodeNS_9allocatorIS2_EEE9__end_capB7v160006Ev, symObjAddr: 0x1478, symBinAddr: 0x100004310, symSize: 0x28 }
  - { offsetInCU: 0xED2F, offset: 0xED2F, size: 0x8, addend: 0x0, symName: __ZNKSt3__117__compressed_pairIPP4NodeNS_9allocatorIS2_EEE5firstB7v160006Ev, symObjAddr: 0x14A0, symBinAddr: 0x100004338, symSize: 0x24 }
  - { offsetInCU: 0xED54, offset: 0xED54, size: 0x8, addend: 0x0, symName: __ZNKSt3__122__compressed_pair_elemIPP4NodeLi0ELb0EE5__getB7v160006Ev, symObjAddr: 0x14C4, symBinAddr: 0x10000435C, symSize: 0x14 }
  - { offsetInCU: 0xED79, offset: 0xED79, size: 0x8, addend: 0x0, symName: __ZNSt3__16vectorINS0_IiNS_9allocatorIiEEEENS1_IS3_EEEC2B7v160006Ev, symObjAddr: 0x14D8, symBinAddr: 0x100004370, symSize: 0x58 }
  - { offsetInCU: 0xEDAB, offset: 0xEDAB, size: 0x8, addend: 0x0, symName: __ZNSt3__117__compressed_pairIPNS_6vectorIiNS_9allocatorIiEEEENS2_IS4_EEEC1B7v160006IDnNS_18__default_init_tagEEEOT_OT0_, symObjAddr: 0x1530, symBinAddr: 0x1000043C8, symSize: 0x3C }
  - { offsetInCU: 0xEE01, offset: 0xEE01, size: 0x8, addend: 0x0, symName: __ZNSt3__117__compressed_pairIPNS_6vectorIiNS_9allocatorIiEEEENS2_IS4_EEEC2B7v160006IDnNS_18__default_init_tagEEEOT_OT0_, symObjAddr: 0x157C, symBinAddr: 0x100004414, symSize: 0x40 }
  - { offsetInCU: 0xEE57, offset: 0xEE57, size: 0x8, addend: 0x0, symName: __ZNSt3__122__compressed_pair_elemIPNS_6vectorIiNS_9allocatorIiEEEELi0ELb0EEC2B7v160006IDnvEEOT_, symObjAddr: 0x15BC, symBinAddr: 0x100004454, symSize: 0x1C }
  - { offsetInCU: 0xEE98, offset: 0xEE98, size: 0x8, addend: 0x0, symName: __ZNSt3__122__compressed_pair_elemINS_9allocatorINS_6vectorIiNS1_IiEEEEEELi1ELb1EEC2B7v160006ENS_18__default_init_tagE, symObjAddr: 0x15D8, symBinAddr: 0x100004470, symSize: 0x2C }
  - { offsetInCU: 0xEECA, offset: 0xEECA, size: 0x8, addend: 0x0, symName: __ZNSt3__19allocatorINS_6vectorIiNS0_IiEEEEEC2B7v160006Ev, symObjAddr: 0x1604, symBinAddr: 0x10000449C, symSize: 0x2C }
  - { offsetInCU: 0xEEF2, offset: 0xEEF2, size: 0x8, addend: 0x0, symName: __ZNSt3__116__non_trivial_ifILb1ENS_9allocatorINS_6vectorIiNS1_IiEEEEEEEC2B7v160006Ev, symObjAddr: 0x1630, symBinAddr: 0x1000044C8, symSize: 0x14 }
  - { offsetInCU: 0xEF1B, offset: 0xEF1B, size: 0x8, addend: 0x0, symName: __ZNSt3__16vectorINS0_IiNS_9allocatorIiEEEENS1_IS3_EEED2B7v160006Ev, symObjAddr: 0x1644, symBinAddr: 0x1000044DC, symSize: 0x44 }
  - { offsetInCU: 0xEF43, offset: 0xEF43, size: 0x8, addend: 0x0, symName: __ZNSt3__16vectorINS0_IiNS_9allocatorIiEEEENS1_IS3_EEE16__destroy_vectorC1ERS5_, symObjAddr: 0x1688, symBinAddr: 0x100004520, symSize: 0x34 }
  - { offsetInCU: 0xEF7A, offset: 0xEF7A, size: 0x8, addend: 0x0, symName: __ZNSt3__16vectorINS0_IiNS_9allocatorIiEEEENS1_IS3_EEE16__destroy_vectorclB7v160006Ev, symObjAddr: 0x16BC, symBinAddr: 0x100004554, symSize: 0x9C }
  - { offsetInCU: 0xEF9F, offset: 0xEF9F, size: 0x8, addend: 0x0, symName: __ZNSt3__16vectorINS0_IiNS_9allocatorIiEEEENS1_IS3_EEE16__destroy_vectorC2ERS5_, symObjAddr: 0x1758, symBinAddr: 0x1000045F0, symSize: 0x20 }
  - { offsetInCU: 0xEFD7, offset: 0xEFD7, size: 0x8, addend: 0x0, symName: __ZNKSt3__16vectorINS0_IiNS_9allocatorIiEEEENS1_IS3_EEE17__annotate_deleteB7v160006Ev, symObjAddr: 0x1778, symBinAddr: 0x100004610, symSize: 0xD4 }
  - { offsetInCU: 0xEFFC, offset: 0xEFFC, size: 0x8, addend: 0x0, symName: __ZNSt3__16vectorINS0_IiNS_9allocatorIiEEEENS1_IS3_EEE7__clearB7v160006Ev, symObjAddr: 0x185C, symBinAddr: 0x1000046F4, symSize: 0x28 }
  - { offsetInCU: 0xF021, offset: 0xF021, size: 0x8, addend: 0x0, symName: __ZNSt3__116allocator_traitsINS_9allocatorINS_6vectorIiNS1_IiEEEEEEE10deallocateB7v160006ERS5_PS4_m, symObjAddr: 0x1884, symBinAddr: 0x10000471C, symSize: 0x34 }
  - { offsetInCU: 0xF063, offset: 0xF063, size: 0x8, addend: 0x0, symName: __ZNSt3__16vectorINS0_IiNS_9allocatorIiEEEENS1_IS3_EEE7__allocB7v160006Ev, symObjAddr: 0x18B8, symBinAddr: 0x100004750, symSize: 0x28 }
  - { offsetInCU: 0xF088, offset: 0xF088, size: 0x8, addend: 0x0, symName: __ZNKSt3__16vectorINS0_IiNS_9allocatorIiEEEENS1_IS3_EEE8capacityB7v160006Ev, symObjAddr: 0x18E0, symBinAddr: 0x100004778, symSize: 0x40 }
  - { offsetInCU: 0xF0AD, offset: 0xF0AD, size: 0x8, addend: 0x0, symName: __ZNKSt3__16vectorINS0_IiNS_9allocatorIiEEEENS1_IS3_EEE31__annotate_contiguous_containerB7v160006EPKvS7_S7_S7_, symObjAddr: 0x1920, symBinAddr: 0x1000047B8, symSize: 0x20 }
  - { offsetInCU: 0xF0FE, offset: 0xF0FE, size: 0x8, addend: 0x0, symName: __ZNKSt3__16vectorINS0_IiNS_9allocatorIiEEEENS1_IS3_EEE4dataB7v160006Ev, symObjAddr: 0x1940, symBinAddr: 0x1000047D8, symSize: 0x28 }
  - { offsetInCU: 0xF123, offset: 0xF123, size: 0x8, addend: 0x0, symName: __ZNKSt3__16vectorINS0_IiNS_9allocatorIiEEEENS1_IS3_EEE4sizeB7v160006Ev, symObjAddr: 0x1968, symBinAddr: 0x100004800, symSize: 0x28 }
  - { offsetInCU: 0xF148, offset: 0xF148, size: 0x8, addend: 0x0, symName: __ZNSt3__16vectorINS0_IiNS_9allocatorIiEEEENS1_IS3_EEE22__base_destruct_at_endB7v160006EPS3_, symObjAddr: 0x19A4, symBinAddr: 0x10000483C, symSize: 0x8C }
  - { offsetInCU: 0xF18B, offset: 0xF18B, size: 0x8, addend: 0x0, symName: __ZNSt3__116allocator_traitsINS_9allocatorINS_6vectorIiNS1_IiEEEEEEE7destroyB7v160006IS4_vEEvRS5_PT_, symObjAddr: 0x1A30, symBinAddr: 0x1000048C8, symSize: 0x2C }
  - { offsetInCU: 0xF1C8, offset: 0xF1C8, size: 0x8, addend: 0x0, symName: __ZNSt3__19allocatorINS_6vectorIiNS0_IiEEEEE7destroyB7v160006EPS3_, symObjAddr: 0x1A5C, symBinAddr: 0x1000048F4, symSize: 0x28 }
  - { offsetInCU: 0xF1FB, offset: 0xF1FB, size: 0x8, addend: 0x0, symName: __ZNSt3__19allocatorINS_6vectorIiNS0_IiEEEEE10deallocateB7v160006EPS3_m, symObjAddr: 0x1A84, symBinAddr: 0x10000491C, symSize: 0x44 }
  - { offsetInCU: 0xF23C, offset: 0xF23C, size: 0x8, addend: 0x0, symName: __ZNSt3__117__compressed_pairIPNS_6vectorIiNS_9allocatorIiEEEENS2_IS4_EEE6secondB7v160006Ev, symObjAddr: 0x1AC8, symBinAddr: 0x100004960, symSize: 0x24 }
  - { offsetInCU: 0xF261, offset: 0xF261, size: 0x8, addend: 0x0, symName: __ZNSt3__122__compressed_pair_elemINS_9allocatorINS_6vectorIiNS1_IiEEEEEELi1ELb1EE5__getB7v160006Ev, symObjAddr: 0x1AEC, symBinAddr: 0x100004984, symSize: 0x14 }
  - { offsetInCU: 0xF286, offset: 0xF286, size: 0x8, addend: 0x0, symName: __ZNKSt3__16vectorINS0_IiNS_9allocatorIiEEEENS1_IS3_EEE9__end_capB7v160006Ev, symObjAddr: 0x1B00, symBinAddr: 0x100004998, symSize: 0x28 }
  - { offsetInCU: 0xF2AB, offset: 0xF2AB, size: 0x8, addend: 0x0, symName: __ZNKSt3__117__compressed_pairIPNS_6vectorIiNS_9allocatorIiEEEENS2_IS4_EEE5firstB7v160006Ev, symObjAddr: 0x1B28, symBinAddr: 0x1000049C0, symSize: 0x24 }
  - { offsetInCU: 0xF2D0, offset: 0xF2D0, size: 0x8, addend: 0x0, symName: __ZNKSt3__122__compressed_pair_elemIPNS_6vectorIiNS_9allocatorIiEEEELi0ELb0EE5__getB7v160006Ev, symObjAddr: 0x1B4C, symBinAddr: 0x1000049E4, symSize: 0x14 }
  - { offsetInCU: 0xF2F5, offset: 0xF2F5, size: 0x8, addend: 0x0, symName: __ZNSt3__15queueI4NodeNS_5dequeIS1_NS_9allocatorIS1_EEEEEC2B7v160006Ev, symObjAddr: 0x1B60, symBinAddr: 0x1000049F8, symSize: 0x2C }
  - { offsetInCU: 0xF31D, offset: 0xF31D, size: 0x8, addend: 0x0, symName: __ZNSt3__15dequeI4NodeNS_9allocatorIS1_EEEC1B7v160006Ev, symObjAddr: 0x1B8C, symBinAddr: 0x100004A24, symSize: 0x2C }
  - { offsetInCU: 0xF345, offset: 0xF345, size: 0x8, addend: 0x0, symName: __ZNSt3__15dequeI4NodeNS_9allocatorIS1_EEEC2B7v160006Ev, symObjAddr: 0x1BB8, symBinAddr: 0x100004A50, symSize: 0x50 }
  - { offsetInCU: 0xF36D, offset: 0xF36D, size: 0x8, addend: 0x0, symName: __ZNSt3__114__split_bufferIP4NodeNS_9allocatorIS2_EEEC1Ev, symObjAddr: 0x1C08, symBinAddr: 0x100004AA0, symSize: 0x2C }
  - { offsetInCU: 0xF39D, offset: 0xF39D, size: 0x8, addend: 0x0, symName: __ZNSt3__117__compressed_pairImNS_9allocatorI4NodeEEEC1B7v160006IiNS_18__default_init_tagEEEOT_OT0_, symObjAddr: 0x1C34, symBinAddr: 0x100004ACC, symSize: 0x3C }
  - { offsetInCU: 0xF3F3, offset: 0xF3F3, size: 0x8, addend: 0x0, symName: __ZNSt3__114__split_bufferIP4NodeNS_9allocatorIS2_EEEC2Ev, symObjAddr: 0x1C70, symBinAddr: 0x100004B08, symSize: 0x50 }
  - { offsetInCU: 0xF41E, offset: 0xF41E, size: 0x8, addend: 0x0, symName: __ZNSt3__117__compressed_pairIPP4NodeNS_9allocatorIS2_EEEC1B7v160006IDnNS_18__default_init_tagEEEOT_OT0_, symObjAddr: 0x1CC0, symBinAddr: 0x100004B58, symSize: 0x3C }
  - { offsetInCU: 0xF474, offset: 0xF474, size: 0x8, addend: 0x0, symName: __ZNSt3__117__compressed_pairIPP4NodeNS_9allocatorIS2_EEEC2B7v160006IDnNS_18__default_init_tagEEEOT_OT0_, symObjAddr: 0x1CFC, symBinAddr: 0x100004B94, symSize: 0x40 }
  - { offsetInCU: 0xF4CA, offset: 0xF4CA, size: 0x8, addend: 0x0, symName: __ZNSt3__122__compressed_pair_elemIPP4NodeLi0ELb0EEC2B7v160006IDnvEEOT_, symObjAddr: 0x1D3C, symBinAddr: 0x100004BD4, symSize: 0x1C }
  - { offsetInCU: 0xF50B, offset: 0xF50B, size: 0x8, addend: 0x0, symName: __ZNSt3__122__compressed_pair_elemINS_9allocatorIP4NodeEELi1ELb1EEC2B7v160006ENS_18__default_init_tagE, symObjAddr: 0x1D58, symBinAddr: 0x100004BF0, symSize: 0x2C }
  - { offsetInCU: 0xF53D, offset: 0xF53D, size: 0x8, addend: 0x0, symName: __ZNSt3__19allocatorIP4NodeEC2B7v160006Ev, symObjAddr: 0x1D84, symBinAddr: 0x100004C1C, symSize: 0x2C }
  - { offsetInCU: 0xF565, offset: 0xF565, size: 0x8, addend: 0x0, symName: __ZNSt3__116__non_trivial_ifILb1ENS_9allocatorIP4NodeEEEC2B7v160006Ev, symObjAddr: 0x1DB0, symBinAddr: 0x100004C48, symSize: 0x14 }
  - { offsetInCU: 0xF58E, offset: 0xF58E, size: 0x8, addend: 0x0, symName: __ZNSt3__117__compressed_pairImNS_9allocatorI4NodeEEEC2B7v160006IiNS_18__default_init_tagEEEOT_OT0_, symObjAddr: 0x1DC4, symBinAddr: 0x100004C5C, symSize: 0x40 }
  - { offsetInCU: 0xF5E4, offset: 0xF5E4, size: 0x8, addend: 0x0, symName: __ZNSt3__122__compressed_pair_elemImLi0ELb0EEC2B7v160006IivEEOT_, symObjAddr: 0x1E04, symBinAddr: 0x100004C9C, symSize: 0x24 }
  - { offsetInCU: 0xF625, offset: 0xF625, size: 0x8, addend: 0x0, symName: __ZNSt3__122__compressed_pair_elemINS_9allocatorI4NodeEELi1ELb1EEC2B7v160006ENS_18__default_init_tagE, symObjAddr: 0x1E28, symBinAddr: 0x100004CC0, symSize: 0x2C }
  - { offsetInCU: 0xF657, offset: 0xF657, size: 0x8, addend: 0x0, symName: __ZNSt3__19allocatorI4NodeEC2B7v160006Ev, symObjAddr: 0x1E54, symBinAddr: 0x100004CEC, symSize: 0x2C }
  - { offsetInCU: 0xF67F, offset: 0xF67F, size: 0x8, addend: 0x0, symName: __ZNSt3__116__non_trivial_ifILb1ENS_9allocatorI4NodeEEEC2B7v160006Ev, symObjAddr: 0x1E80, symBinAddr: 0x100004D18, symSize: 0x14 }
  - { offsetInCU: 0xF6A7, offset: 0xF6A7, size: 0x8, addend: 0x0, symName: __ZNSt3__15dequeI4NodeNS_9allocatorIS1_EEE9push_backEOS1_, symObjAddr: 0x1E94, symBinAddr: 0x100004D2C, symSize: 0xA0 }
  - { offsetInCU: 0xF6EC, offset: 0xF6EC, size: 0x8, addend: 0x0, symName: __ZNKSt3__15dequeI4NodeNS_9allocatorIS1_EEE12__back_spareB7v160006Ev, symObjAddr: 0x1F34, symBinAddr: 0x100004DCC, symSize: 0x54 }
  - { offsetInCU: 0xF710, offset: 0xF710, size: 0x8, addend: 0x0, symName: __ZNSt3__15dequeI4NodeNS_9allocatorIS1_EEE19__add_back_capacityEv, symObjAddr: 0x1F88, symBinAddr: 0x100004E20, symSize: 0x314 }
  - { offsetInCU: 0xF7CD, offset: 0xF7CD, size: 0x8, addend: 0x0, symName: __ZNSt3__116allocator_traitsINS_9allocatorI4NodeEEE9constructB7v160006IS2_JS2_EvEEvRS3_PT_DpOT0_, symObjAddr: 0x229C, symBinAddr: 0x100005134, symSize: 0x34 }
  - { offsetInCU: 0xF824, offset: 0xF824, size: 0x8, addend: 0x0, symName: __ZNKSt3__15dequeI4NodeNS_9allocatorIS1_EEE10__capacityB7v160006Ev, symObjAddr: 0x22D0, symBinAddr: 0x100005168, symSize: 0x60 }
  - { offsetInCU: 0xF849, offset: 0xF849, size: 0x8, addend: 0x0, symName: __ZNKSt3__15dequeI4NodeNS_9allocatorIS1_EEE13__front_spareB7v160006Ev, symObjAddr: 0x2330, symBinAddr: 0x1000051C8, symSize: 0x18 }
  - { offsetInCU: 0xF86D, offset: 0xF86D, size: 0x8, addend: 0x0, symName: __ZNSt3__114__split_bufferIP4NodeNS_9allocatorIS2_EEE9push_backB7v160006ERKS2_, symObjAddr: 0x2348, symBinAddr: 0x1000051E0, symSize: 0x260 }
  - { offsetInCU: 0xF8E6, offset: 0xF8E6, size: 0x8, addend: 0x0, symName: __ZNKSt3__114__split_bufferIP4NodeNS_9allocatorIS2_EEE12__back_spareB7v160006Ev, symObjAddr: 0x25A8, symBinAddr: 0x100005440, symSize: 0x40 }
  - { offsetInCU: 0xF90A, offset: 0xF90A, size: 0x8, addend: 0x0, symName: __ZNSt3__114__split_bufferIP4NodeNS_9allocatorIS2_EEE9push_backEOS2_, symObjAddr: 0x25E8, symBinAddr: 0x100005480, symSize: 0x260 }
  - { offsetInCU: 0xF983, offset: 0xF983, size: 0x8, addend: 0x0, symName: __ZNSt3__116allocator_traitsINS_9allocatorI4NodeEEE8allocateB7v160006ERS3_m, symObjAddr: 0x2848, symBinAddr: 0x1000056E0, symSize: 0x2C }
  - { offsetInCU: 0xF9B5, offset: 0xF9B5, size: 0x8, addend: 0x0, symName: __ZNSt3__114__split_bufferIP4NodeNS_9allocatorIS2_EEE10push_frontEOS2_, symObjAddr: 0x2874, symBinAddr: 0x10000570C, symSize: 0x25C }
  - { offsetInCU: 0xFA2E, offset: 0xFA2E, size: 0x8, addend: 0x0, symName: __ZNSt3__114__split_bufferIP4NodeRNS_9allocatorIS2_EEEC1EmmS5_, symObjAddr: 0x2AFC, symBinAddr: 0x100005994, symSize: 0x44 }
  - { offsetInCU: 0xFA88, offset: 0xFA88, size: 0x8, addend: 0x0, symName: __ZNSt3__122__allocator_destructorINS_9allocatorI4NodeEEEC1B7v160006ERS3_m, symObjAddr: 0x2B40, symBinAddr: 0x1000059D8, symSize: 0x3C }
  - { offsetInCU: 0xFB49, offset: 0xFB49, size: 0x8, addend: 0x0, symName: __ZNSt3__110unique_ptrIP4NodeNS_22__allocator_destructorINS_9allocatorIS1_EEEEEC1B7v160006ILb1EvEES2_NS_16__dependent_typeINS_27__unique_ptr_deleter_sfinaeIS6_EEXT_EE20__good_rval_ref_typeE, symObjAddr: 0x2B7C, symBinAddr: 0x100005A14, symSize: 0x3C }
  - { offsetInCU: 0xFB97, offset: 0xFB97, size: 0x8, addend: 0x0, symName: __ZNSt3__114__split_bufferIP4NodeRNS_9allocatorIS2_EEE9push_backEOS2_, symObjAddr: 0x2BB8, symBinAddr: 0x100005A50, symSize: 0x260 }
  - { offsetInCU: 0xFC10, offset: 0xFC10, size: 0x8, addend: 0x0, symName: __ZNKSt3__110unique_ptrIP4NodeNS_22__allocator_destructorINS_9allocatorIS1_EEEEE3getB7v160006Ev, symObjAddr: 0x2E18, symBinAddr: 0x100005CB0, symSize: 0x28 }
  - { offsetInCU: 0xFC35, offset: 0xFC35, size: 0x8, addend: 0x0, symName: __ZNSt3__110unique_ptrIP4NodeNS_22__allocator_destructorINS_9allocatorIS1_EEEEE7releaseB7v160006Ev, symObjAddr: 0x2E40, symBinAddr: 0x100005CD8, symSize: 0x44 }
  - { offsetInCU: 0xFC68, offset: 0xFC68, size: 0x8, addend: 0x0, symName: __ZNSt3__114__split_bufferIP4NodeRNS_9allocatorIS2_EEE10push_frontERKS2_, symObjAddr: 0x2E84, symBinAddr: 0x100005D1C, symSize: 0x25C }
  - { offsetInCU: 0xFCE1, offset: 0xFCE1, size: 0x8, addend: 0x0, symName: __ZNSt3__114__split_bufferIP4NodeNS_9allocatorIS2_EEE9__end_capB7v160006Ev, symObjAddr: 0x311C, symBinAddr: 0x100005FB4, symSize: 0x28 }
  - { offsetInCU: 0xFD06, offset: 0xFD06, size: 0x8, addend: 0x0, symName: __ZNSt3__114__split_bufferIP4NodeRNS_9allocatorIS2_EEE9__end_capB7v160006Ev, symObjAddr: 0x3144, symBinAddr: 0x100005FDC, symSize: 0x28 }
  - { offsetInCU: 0xFD2B, offset: 0xFD2B, size: 0x8, addend: 0x0, symName: __ZNSt3__110unique_ptrIP4NodeNS_22__allocator_destructorINS_9allocatorIS1_EEEEED1B7v160006Ev, symObjAddr: 0x316C, symBinAddr: 0x100006004, symSize: 0x2C }
  - { offsetInCU: 0xFD53, offset: 0xFD53, size: 0x8, addend: 0x0, symName: __ZNSt3__114__split_bufferIP4NodeRNS_9allocatorIS2_EEED1Ev, symObjAddr: 0x3198, symBinAddr: 0x100006030, symSize: 0x2C }
  - { offsetInCU: 0xFD7D, offset: 0xFD7D, size: 0x8, addend: 0x0, symName: __ZNSt3__114__split_bufferIP4NodeRNS_9allocatorIS2_EEE18__construct_at_endINS_13move_iteratorIPS2_EEEENS_9enable_ifIXsr27__is_cpp17_forward_iteratorIT_EE5valueEvE4typeESC_SC_, symObjAddr: 0x3204, symBinAddr: 0x10000609C, symSize: 0xFC }
  - { offsetInCU: 0xFDD8, offset: 0xFDD8, size: 0x8, addend: 0x0, symName: __ZNSt3__113move_iteratorIPP4NodeEC1B7v160006ES3_, symObjAddr: 0x3300, symBinAddr: 0x100006198, symSize: 0x34 }
  - { offsetInCU: 0xFE0E, offset: 0xFE0E, size: 0x8, addend: 0x0, symName: __ZNSt3__116allocator_traitsINS_9allocatorIP4NodeEEE9constructB7v160006IS3_JRKS3_EvEEvRS4_PT_DpOT0_, symObjAddr: 0x3334, symBinAddr: 0x1000061CC, symSize: 0x34 }
  - { offsetInCU: 0xFE88, offset: 0xFE88, size: 0x8, addend: 0x0, symName: __ZNKSt3__114__move_trivialclB7v160006IP4NodeS3_Li0EEENS_4pairIPT_PT0_EES6_S6_S8_, symObjAddr: 0x3504, symBinAddr: 0x10000639C, symSize: 0x48 }
  - { offsetInCU: 0xFEF4, offset: 0xFEF4, size: 0x8, addend: 0x0, symName: __ZNSt3__14pairIPP4NodeS3_EC1B7v160006IRS3_S3_LPv0EEEOT_OT0_, symObjAddr: 0x36CC, symBinAddr: 0x100006564, symSize: 0x3C }
  - { offsetInCU: 0xFF50, offset: 0xFF50, size: 0x8, addend: 0x0, symName: __ZNSt3__14pairIPP4NodeS3_EC2B7v160006IRS3_S3_LPv0EEEOT_OT0_, symObjAddr: 0x3708, symBinAddr: 0x1000065A0, symSize: 0x34 }
  - { offsetInCU: 0xFFAD, offset: 0xFFAD, size: 0x8, addend: 0x0, symName: __ZNSt3__118__unwrap_iter_implIPP4NodeLb1EE8__unwrapB7v160006ES3_, symObjAddr: 0x373C, symBinAddr: 0x1000065D4, symSize: 0x24 }
  - { offsetInCU: 0xFFD0, offset: 0xFFD0, size: 0x8, addend: 0x0, symName: __ZNSt3__14pairIPP4NodeS3_EC1B7v160006IS3_S3_LPv0EEEOT_OT0_, symObjAddr: 0x3760, symBinAddr: 0x1000065F8, symSize: 0x3C }
  - { offsetInCU: 0x1002C, offset: 0x1002C, size: 0x8, addend: 0x0, symName: __ZNSt3__14pairIPP4NodeS3_EC2B7v160006IS3_S3_LPv0EEEOT_OT0_, symObjAddr: 0x379C, symBinAddr: 0x100006634, symSize: 0x34 }
  - { offsetInCU: 0x10089, offset: 0x10089, size: 0x8, addend: 0x0, symName: __ZNSt3__118__unwrap_iter_implIPP4NodeLb1EE8__rewrapB7v160006ES3_S3_, symObjAddr: 0x37D0, symBinAddr: 0x100006668, symSize: 0x50 }
  - { offsetInCU: 0x100C4, offset: 0x100C4, size: 0x8, addend: 0x0, symName: __ZNSt3__114__split_bufferIP4NodeRNS_9allocatorIS2_EEE21_ConstructTransactionC1B7v160006EPPS2_m, symObjAddr: 0x385C, symBinAddr: 0x1000066F4, symSize: 0x3C }
  - { offsetInCU: 0x10108, offset: 0x10108, size: 0x8, addend: 0x0, symName: __ZNSt3__116allocator_traitsINS_9allocatorIP4NodeEEE9constructB7v160006IS3_JS3_EvEEvRS4_PT_DpOT0_, symObjAddr: 0x3898, symBinAddr: 0x100006730, symSize: 0x34 }
  - { offsetInCU: 0x1015F, offset: 0x1015F, size: 0x8, addend: 0x0, symName: __ZNSt3__114__split_bufferIP4NodeRNS_9allocatorIS2_EEE7__allocB7v160006Ev, symObjAddr: 0x38CC, symBinAddr: 0x100006764, symSize: 0x28 }
  - { offsetInCU: 0x10184, offset: 0x10184, size: 0x8, addend: 0x0, symName: __ZNKSt3__113move_iteratorIPP4NodeEdeB7v160006Ev, symObjAddr: 0x38F4, symBinAddr: 0x10000678C, symSize: 0x18 }
  - { offsetInCU: 0x101A9, offset: 0x101A9, size: 0x8, addend: 0x0, symName: __ZNSt3__113move_iteratorIPP4NodeEppB7v160006Ev, symObjAddr: 0x390C, symBinAddr: 0x1000067A4, symSize: 0x20 }
  - { offsetInCU: 0x101CE, offset: 0x101CE, size: 0x8, addend: 0x0, symName: __ZNSt3__114__split_bufferIP4NodeRNS_9allocatorIS2_EEE21_ConstructTransactionD1B7v160006Ev, symObjAddr: 0x392C, symBinAddr: 0x1000067C4, symSize: 0x2C }
  - { offsetInCU: 0x101F6, offset: 0x101F6, size: 0x8, addend: 0x0, symName: __ZNKSt3__113move_iteratorIPP4NodeE4baseB7v160006Ev, symObjAddr: 0x39D0, symBinAddr: 0x100006868, symSize: 0x18 }
  - { offsetInCU: 0x1021B, offset: 0x1021B, size: 0x8, addend: 0x0, symName: __ZNSt3__114__split_bufferIP4NodeRNS_9allocatorIS2_EEE21_ConstructTransactionC2B7v160006EPPS2_m, symObjAddr: 0x39E8, symBinAddr: 0x100006880, symSize: 0x44 }
  - { offsetInCU: 0x10260, offset: 0x10260, size: 0x8, addend: 0x0, symName: __ZNSt3__19allocatorIP4NodeE9constructB7v160006IS2_JS2_EEEvPT_DpOT0_, symObjAddr: 0x3A2C, symBinAddr: 0x1000068C4, symSize: 0x28 }
  - { offsetInCU: 0x102B5, offset: 0x102B5, size: 0x8, addend: 0x0, symName: __ZNSt3__117__compressed_pairIPP4NodeRNS_9allocatorIS2_EEE6secondB7v160006Ev, symObjAddr: 0x3A54, symBinAddr: 0x1000068EC, symSize: 0x28 }
  - { offsetInCU: 0x102DA, offset: 0x102DA, size: 0x8, addend: 0x0, symName: __ZNSt3__122__compressed_pair_elemIRNS_9allocatorIP4NodeEELi1ELb0EE5__getB7v160006Ev, symObjAddr: 0x3A7C, symBinAddr: 0x100006914, symSize: 0x18 }
  - { offsetInCU: 0x102FF, offset: 0x102FF, size: 0x8, addend: 0x0, symName: __ZNSt3__114__split_bufferIP4NodeRNS_9allocatorIS2_EEE21_ConstructTransactionD2B7v160006Ev, symObjAddr: 0x3A94, symBinAddr: 0x10000692C, symSize: 0x20 }
  - { offsetInCU: 0x10328, offset: 0x10328, size: 0x8, addend: 0x0, symName: __ZNSt3__113move_iteratorIPP4NodeEC2B7v160006ES3_, symObjAddr: 0x3AB4, symBinAddr: 0x10000694C, symSize: 0x20 }
  - { offsetInCU: 0x1035F, offset: 0x1035F, size: 0x8, addend: 0x0, symName: __ZNSt3__19allocatorIP4NodeE9constructB7v160006IS2_JRKS2_EEEvPT_DpOT0_, symObjAddr: 0x3AD4, symBinAddr: 0x10000696C, symSize: 0x28 }
  - { offsetInCU: 0x103B4, offset: 0x103B4, size: 0x8, addend: 0x0, symName: __ZNSt3__19allocatorI4NodeE8allocateB7v160006Em, symObjAddr: 0x3AFC, symBinAddr: 0x100006994, symSize: 0x58 }
  - { offsetInCU: 0x103F1, offset: 0x103F1, size: 0x8, addend: 0x0, symName: __ZNSt3__116allocator_traitsINS_9allocatorI4NodeEEE8max_sizeB7v160006IS3_vEEmRKS3_, symObjAddr: 0x3B54, symBinAddr: 0x1000069EC, symSize: 0x24 }
  - { offsetInCU: 0x1041F, offset: 0x1041F, size: 0x8, addend: 0x0, symName: __ZNKSt3__19allocatorI4NodeE8max_sizeB7v160006Ev, symObjAddr: 0x3BD4, symBinAddr: 0x100006A6C, symSize: 0x14 }
  - { offsetInCU: 0x1044E, offset: 0x1044E, size: 0x8, addend: 0x0, symName: __ZNKSt3__123__move_backward_trivialclB7v160006IP4NodeS3_Li0EEENS_4pairIPT_PT0_EES6_S6_S8_, symObjAddr: 0x3D88, symBinAddr: 0x100006C20, symSize: 0x48 }
  - { offsetInCU: 0x104B5, offset: 0x104B5, size: 0x8, addend: 0x0, symName: __ZNSt3__14pairIPP4NodeS3_EC1B7v160006IRS3_S6_LPv0EEEOT_OT0_, symObjAddr: 0x3E9C, symBinAddr: 0x100006D34, symSize: 0x3C }
  - { offsetInCU: 0x10511, offset: 0x10511, size: 0x8, addend: 0x0, symName: __ZNSt3__14pairIPP4NodeS3_EC2B7v160006IRS3_S6_LPv0EEEOT_OT0_, symObjAddr: 0x3ED8, symBinAddr: 0x100006D70, symSize: 0x34 }
  - { offsetInCU: 0x10578, offset: 0x10578, size: 0x8, addend: 0x0, symName: __ZNKSt3__16__lessImmEclB7v160006ERKmS3_, symObjAddr: 0x3F60, symBinAddr: 0x100006DF8, symSize: 0x34 }
  - { offsetInCU: 0x105B9, offset: 0x105B9, size: 0x8, addend: 0x0, symName: __ZNSt3__114__split_bufferIP4NodeRNS_9allocatorIS2_EEEC2EmmS5_, symObjAddr: 0x3F94, symBinAddr: 0x100006E2C, symSize: 0xD4 }
  - { offsetInCU: 0x1062C, offset: 0x1062C, size: 0x8, addend: 0x0, symName: __ZNSt3__117__compressed_pairIPP4NodeRNS_9allocatorIS2_EEEC1B7v160006IDnS6_EEOT_OT0_, symObjAddr: 0x4068, symBinAddr: 0x100006F00, symSize: 0x3C }
  - { offsetInCU: 0x10682, offset: 0x10682, size: 0x8, addend: 0x0, symName: __ZNSt3__117__compressed_pairIPP4NodeRNS_9allocatorIS2_EEEC2B7v160006IDnS6_EEOT_OT0_, symObjAddr: 0x40E4, symBinAddr: 0x100006F7C, symSize: 0x48 }
  - { offsetInCU: 0x106D8, offset: 0x106D8, size: 0x8, addend: 0x0, symName: __ZNSt3__122__compressed_pair_elemIRNS_9allocatorIP4NodeEELi1ELb0EEC2B7v160006IS5_vEEOT_, symObjAddr: 0x412C, symBinAddr: 0x100006FC4, symSize: 0x20 }
  - { offsetInCU: 0x10719, offset: 0x10719, size: 0x8, addend: 0x0, symName: __ZNSt3__19allocatorIP4NodeE8allocateB7v160006Em, symObjAddr: 0x414C, symBinAddr: 0x100006FE4, symSize: 0x58 }
  - { offsetInCU: 0x10756, offset: 0x10756, size: 0x8, addend: 0x0, symName: __ZNSt3__116allocator_traitsINS_9allocatorIP4NodeEEE8max_sizeB7v160006IS4_vEEmRKS4_, symObjAddr: 0x41A4, symBinAddr: 0x10000703C, symSize: 0x24 }
  - { offsetInCU: 0x10784, offset: 0x10784, size: 0x8, addend: 0x0, symName: __ZNKSt3__19allocatorIP4NodeE8max_sizeB7v160006Ev, symObjAddr: 0x41C8, symBinAddr: 0x100007060, symSize: 0x14 }
  - { offsetInCU: 0x107A9, offset: 0x107A9, size: 0x8, addend: 0x0, symName: __ZNSt3__122__allocator_destructorINS_9allocatorI4NodeEEEC2B7v160006ERS3_m, symObjAddr: 0x41DC, symBinAddr: 0x100007074, symSize: 0x2C }
  - { offsetInCU: 0x107EE, offset: 0x107EE, size: 0x8, addend: 0x0, symName: __ZNSt3__110unique_ptrIP4NodeNS_22__allocator_destructorINS_9allocatorIS1_EEEEEC2B7v160006ILb1EvEES2_NS_16__dependent_typeINS_27__unique_ptr_deleter_sfinaeIS6_EEXT_EE20__good_rval_ref_typeE, symObjAddr: 0x4208, symBinAddr: 0x1000070A0, symSize: 0x48 }
  - { offsetInCU: 0x1083D, offset: 0x1083D, size: 0x8, addend: 0x0, symName: __ZNSt3__117__compressed_pairIP4NodeNS_22__allocator_destructorINS_9allocatorIS1_EEEEEC1B7v160006IRS2_S6_EEOT_OT0_, symObjAddr: 0x4250, symBinAddr: 0x1000070E8, symSize: 0x3C }
  - { offsetInCU: 0x10893, offset: 0x10893, size: 0x8, addend: 0x0, symName: __ZNSt3__117__compressed_pairIP4NodeNS_22__allocator_destructorINS_9allocatorIS1_EEEEEC2B7v160006IRS2_S6_EEOT_OT0_, symObjAddr: 0x428C, symBinAddr: 0x100007124, symSize: 0x48 }
  - { offsetInCU: 0x108E9, offset: 0x108E9, size: 0x8, addend: 0x0, symName: __ZNSt3__122__compressed_pair_elemIP4NodeLi0ELb0EEC2B7v160006IRS2_vEEOT_, symObjAddr: 0x42D4, symBinAddr: 0x10000716C, symSize: 0x24 }
  - { offsetInCU: 0x1092A, offset: 0x1092A, size: 0x8, addend: 0x0, symName: __ZNSt3__122__compressed_pair_elemINS_22__allocator_destructorINS_9allocatorI4NodeEEEELi1ELb0EEC2B7v160006IS5_vEEOT_, symObjAddr: 0x42F8, symBinAddr: 0x100007190, symSize: 0x24 }
  - { offsetInCU: 0x1096B, offset: 0x1096B, size: 0x8, addend: 0x0, symName: __ZNKSt3__117__compressed_pairIP4NodeNS_22__allocator_destructorINS_9allocatorIS1_EEEEE5firstB7v160006Ev, symObjAddr: 0x431C, symBinAddr: 0x1000071B4, symSize: 0x24 }
  - { offsetInCU: 0x10990, offset: 0x10990, size: 0x8, addend: 0x0, symName: __ZNKSt3__122__compressed_pair_elemIP4NodeLi0ELb0EE5__getB7v160006Ev, symObjAddr: 0x4340, symBinAddr: 0x1000071D8, symSize: 0x14 }
  - { offsetInCU: 0x109B5, offset: 0x109B5, size: 0x8, addend: 0x0, symName: __ZNSt3__117__compressed_pairIP4NodeNS_22__allocator_destructorINS_9allocatorIS1_EEEEE5firstB7v160006Ev, symObjAddr: 0x4354, symBinAddr: 0x1000071EC, symSize: 0x24 }
  - { offsetInCU: 0x109DA, offset: 0x109DA, size: 0x8, addend: 0x0, symName: __ZNSt3__122__compressed_pair_elemIP4NodeLi0ELb0EE5__getB7v160006Ev, symObjAddr: 0x4378, symBinAddr: 0x100007210, symSize: 0x14 }
  - { offsetInCU: 0x109FF, offset: 0x109FF, size: 0x8, addend: 0x0, symName: __ZNSt3__117__compressed_pairIPP4NodeNS_9allocatorIS2_EEE5firstB7v160006Ev, symObjAddr: 0x438C, symBinAddr: 0x100007224, symSize: 0x24 }
  - { offsetInCU: 0x10A24, offset: 0x10A24, size: 0x8, addend: 0x0, symName: __ZNSt3__122__compressed_pair_elemIPP4NodeLi0ELb0EE5__getB7v160006Ev, symObjAddr: 0x43B0, symBinAddr: 0x100007248, symSize: 0x14 }
  - { offsetInCU: 0x10A49, offset: 0x10A49, size: 0x8, addend: 0x0, symName: __ZNSt3__117__compressed_pairIPP4NodeRNS_9allocatorIS2_EEE5firstB7v160006Ev, symObjAddr: 0x43C4, symBinAddr: 0x10000725C, symSize: 0x24 }
  - { offsetInCU: 0x10A6E, offset: 0x10A6E, size: 0x8, addend: 0x0, symName: __ZNSt3__110unique_ptrIP4NodeNS_22__allocator_destructorINS_9allocatorIS1_EEEEED2B7v160006Ev, symObjAddr: 0x43E8, symBinAddr: 0x100007280, symSize: 0x30 }
  - { offsetInCU: 0x10A96, offset: 0x10A96, size: 0x8, addend: 0x0, symName: __ZNSt3__110unique_ptrIP4NodeNS_22__allocator_destructorINS_9allocatorIS1_EEEEE5resetB7v160006ES2_, symObjAddr: 0x4418, symBinAddr: 0x1000072B0, symSize: 0x78 }
  - { offsetInCU: 0x10AD9, offset: 0x10AD9, size: 0x8, addend: 0x0, symName: __ZNSt3__117__compressed_pairIP4NodeNS_22__allocator_destructorINS_9allocatorIS1_EEEEE6secondB7v160006Ev, symObjAddr: 0x4490, symBinAddr: 0x100007328, symSize: 0x28 }
  - { offsetInCU: 0x10AFE, offset: 0x10AFE, size: 0x8, addend: 0x0, symName: __ZNSt3__122__allocator_destructorINS_9allocatorI4NodeEEEclB7v160006EPS2_, symObjAddr: 0x44B8, symBinAddr: 0x100007350, symSize: 0x34 }
  - { offsetInCU: 0x10B31, offset: 0x10B31, size: 0x8, addend: 0x0, symName: __ZNSt3__122__compressed_pair_elemINS_22__allocator_destructorINS_9allocatorI4NodeEEEELi1ELb0EE5__getB7v160006Ev, symObjAddr: 0x44EC, symBinAddr: 0x100007384, symSize: 0x14 }
  - { offsetInCU: 0x10B56, offset: 0x10B56, size: 0x8, addend: 0x0, symName: __ZNSt3__114__split_bufferIP4NodeRNS_9allocatorIS2_EEED2Ev, symObjAddr: 0x4500, symBinAddr: 0x100007398, symSize: 0x8C }
  - { offsetInCU: 0x10B81, offset: 0x10B81, size: 0x8, addend: 0x0, symName: __ZNSt3__114__split_bufferIP4NodeRNS_9allocatorIS2_EEE5clearB7v160006Ev, symObjAddr: 0x458C, symBinAddr: 0x100007424, symSize: 0x28 }
  - { offsetInCU: 0x10BA6, offset: 0x10BA6, size: 0x8, addend: 0x0, symName: __ZNKSt3__114__split_bufferIP4NodeRNS_9allocatorIS2_EEE8capacityB7v160006Ev, symObjAddr: 0x45B4, symBinAddr: 0x10000744C, symSize: 0x40 }
  - { offsetInCU: 0x10BCB, offset: 0x10BCB, size: 0x8, addend: 0x0, symName: __ZNSt3__114__split_bufferIP4NodeRNS_9allocatorIS2_EEE17__destruct_at_endB7v160006EPS2_, symObjAddr: 0x45F4, symBinAddr: 0x10000748C, symSize: 0x2C }
  - { offsetInCU: 0x10BFD, offset: 0x10BFD, size: 0x8, addend: 0x0, symName: __ZNSt3__114__split_bufferIP4NodeRNS_9allocatorIS2_EEE17__destruct_at_endB7v160006EPS2_NS_17integral_constantIbLb0EEE, symObjAddr: 0x4620, symBinAddr: 0x1000074B8, symSize: 0x80 }
  - { offsetInCU: 0x10C3C, offset: 0x10C3C, size: 0x8, addend: 0x0, symName: __ZNKSt3__114__split_bufferIP4NodeRNS_9allocatorIS2_EEE9__end_capB7v160006Ev, symObjAddr: 0x46A0, symBinAddr: 0x100007538, symSize: 0x28 }
  - { offsetInCU: 0x10C61, offset: 0x10C61, size: 0x8, addend: 0x0, symName: __ZNKSt3__117__compressed_pairIPP4NodeRNS_9allocatorIS2_EEE5firstB7v160006Ev, symObjAddr: 0x46C8, symBinAddr: 0x100007560, symSize: 0x24 }
  - { offsetInCU: 0x10C86, offset: 0x10C86, size: 0x8, addend: 0x0, symName: __ZNSt3__19allocatorI4NodeE9constructB7v160006IS1_JS1_EEEvPT_DpOT0_, symObjAddr: 0x46EC, symBinAddr: 0x100007584, symSize: 0x28 }
  - { offsetInCU: 0x10CDB, offset: 0x10CDB, size: 0x8, addend: 0x0, symName: __ZNKSt3__15dequeI4NodeNS_9allocatorIS1_EEE5emptyB7v160006Ev, symObjAddr: 0x4714, symBinAddr: 0x1000075AC, symSize: 0x30 }
  - { offsetInCU: 0x10CFF, offset: 0x10CFF, size: 0x8, addend: 0x0, symName: __ZNSt3__15dequeI4NodeNS_9allocatorIS1_EEE5frontEv, symObjAddr: 0x4744, symBinAddr: 0x1000075DC, symSize: 0x50 }
  - { offsetInCU: 0x10D25, offset: 0x10D25, size: 0x8, addend: 0x0, symName: __ZNSt3__15dequeI4NodeNS_9allocatorIS1_EEE9pop_frontEv, symObjAddr: 0x4794, symBinAddr: 0x10000762C, symSize: 0xAC }
  - { offsetInCU: 0x10D5B, offset: 0x10D5B, size: 0x8, addend: 0x0, symName: __ZNSt3__15dequeI4NodeNS_9allocatorIS1_EEE26__maybe_remove_front_spareB7v160006Eb, symObjAddr: 0x4854, symBinAddr: 0x1000076EC, symSize: 0xDC }
  - { offsetInCU: 0x10D8F, offset: 0x10D8F, size: 0x8, addend: 0x0, symName: __ZNKSt3__15dequeI4NodeNS_9allocatorIS1_EEE20__front_spare_blocksB7v160006Ev, symObjAddr: 0x4930, symBinAddr: 0x1000077C8, symSize: 0x2C }
  - { offsetInCU: 0x10DB4, offset: 0x10DB4, size: 0x8, addend: 0x0, symName: __ZNSt3__16vectorIiNS_9allocatorIiEEEC2B7v160006Ev, symObjAddr: 0x495C, symBinAddr: 0x1000077F4, symSize: 0x58 }
  - { offsetInCU: 0x10DDC, offset: 0x10DDC, size: 0x8, addend: 0x0, symName: __ZNSt3__117__compressed_pairIPiNS_9allocatorIiEEEC1B7v160006IDnNS_18__default_init_tagEEEOT_OT0_, symObjAddr: 0x49B4, symBinAddr: 0x10000784C, symSize: 0x3C }
  - { offsetInCU: 0x10E32, offset: 0x10E32, size: 0x8, addend: 0x0, symName: __ZNSt3__117__compressed_pairIPiNS_9allocatorIiEEEC2B7v160006IDnNS_18__default_init_tagEEEOT_OT0_, symObjAddr: 0x4A00, symBinAddr: 0x100007898, symSize: 0x40 }
  - { offsetInCU: 0x10E88, offset: 0x10E88, size: 0x8, addend: 0x0, symName: __ZNSt3__122__compressed_pair_elemIPiLi0ELb0EEC2B7v160006IDnvEEOT_, symObjAddr: 0x4A40, symBinAddr: 0x1000078D8, symSize: 0x1C }
  - { offsetInCU: 0x10EC9, offset: 0x10EC9, size: 0x8, addend: 0x0, symName: __ZNSt3__122__compressed_pair_elemINS_9allocatorIiEELi1ELb1EEC2B7v160006ENS_18__default_init_tagE, symObjAddr: 0x4A5C, symBinAddr: 0x1000078F4, symSize: 0x2C }
  - { offsetInCU: 0x10EFB, offset: 0x10EFB, size: 0x8, addend: 0x0, symName: __ZNSt3__19allocatorIiEC2B7v160006Ev, symObjAddr: 0x4A88, symBinAddr: 0x100007920, symSize: 0x2C }
  - { offsetInCU: 0x10F23, offset: 0x10F23, size: 0x8, addend: 0x0, symName: __ZNSt3__116__non_trivial_ifILb1ENS_9allocatorIiEEEC2B7v160006Ev, symObjAddr: 0x4AB4, symBinAddr: 0x10000794C, symSize: 0x14 }
  - { offsetInCU: 0x10F4C, offset: 0x10F4C, size: 0x8, addend: 0x0, symName: __ZNSt3__16vectorIiNS_9allocatorIiEEED2B7v160006Ev, symObjAddr: 0x4AC8, symBinAddr: 0x100007960, symSize: 0x44 }
  - { offsetInCU: 0x10F74, offset: 0x10F74, size: 0x8, addend: 0x0, symName: __ZNSt3__16vectorIiNS_9allocatorIiEEE16__destroy_vectorC1ERS3_, symObjAddr: 0x4B0C, symBinAddr: 0x1000079A4, symSize: 0x34 }
  - { offsetInCU: 0x10FAB, offset: 0x10FAB, size: 0x8, addend: 0x0, symName: __ZNSt3__16vectorIiNS_9allocatorIiEEE16__destroy_vectorclB7v160006Ev, symObjAddr: 0x4B40, symBinAddr: 0x1000079D8, symSize: 0x9C }
  - { offsetInCU: 0x10FD0, offset: 0x10FD0, size: 0x8, addend: 0x0, symName: __ZNSt3__16vectorIiNS_9allocatorIiEEE16__destroy_vectorC2ERS3_, symObjAddr: 0x4BDC, symBinAddr: 0x100007A74, symSize: 0x20 }
  - { offsetInCU: 0x11008, offset: 0x11008, size: 0x8, addend: 0x0, symName: __ZNKSt3__16vectorIiNS_9allocatorIiEEE17__annotate_deleteB7v160006Ev, symObjAddr: 0x4BFC, symBinAddr: 0x100007A94, symSize: 0xB8 }
  - { offsetInCU: 0x1102D, offset: 0x1102D, size: 0x8, addend: 0x0, symName: __ZNSt3__16vectorIiNS_9allocatorIiEEE7__clearB7v160006Ev, symObjAddr: 0x4CC4, symBinAddr: 0x100007B5C, symSize: 0x28 }
  - { offsetInCU: 0x11052, offset: 0x11052, size: 0x8, addend: 0x0, symName: __ZNSt3__116allocator_traitsINS_9allocatorIiEEE10deallocateB7v160006ERS2_Pim, symObjAddr: 0x4CEC, symBinAddr: 0x100007B84, symSize: 0x34 }
  - { offsetInCU: 0x11094, offset: 0x11094, size: 0x8, addend: 0x0, symName: __ZNSt3__16vectorIiNS_9allocatorIiEEE7__allocB7v160006Ev, symObjAddr: 0x4D20, symBinAddr: 0x100007BB8, symSize: 0x28 }
  - { offsetInCU: 0x110B9, offset: 0x110B9, size: 0x8, addend: 0x0, symName: __ZNKSt3__16vectorIiNS_9allocatorIiEEE8capacityB7v160006Ev, symObjAddr: 0x4D48, symBinAddr: 0x100007BE0, symSize: 0x40 }
  - { offsetInCU: 0x110DE, offset: 0x110DE, size: 0x8, addend: 0x0, symName: __ZNKSt3__16vectorIiNS_9allocatorIiEEE31__annotate_contiguous_containerB7v160006EPKvS5_S5_S5_, symObjAddr: 0x4D88, symBinAddr: 0x100007C20, symSize: 0x20 }
  - { offsetInCU: 0x1112F, offset: 0x1112F, size: 0x8, addend: 0x0, symName: __ZNKSt3__16vectorIiNS_9allocatorIiEEE4dataB7v160006Ev, symObjAddr: 0x4DA8, symBinAddr: 0x100007C40, symSize: 0x28 }
  - { offsetInCU: 0x11154, offset: 0x11154, size: 0x8, addend: 0x0, symName: __ZNKSt3__16vectorIiNS_9allocatorIiEEE4sizeB7v160006Ev, symObjAddr: 0x4DD0, symBinAddr: 0x100007C68, symSize: 0x28 }
  - { offsetInCU: 0x11179, offset: 0x11179, size: 0x8, addend: 0x0, symName: __ZNSt3__16vectorIiNS_9allocatorIiEEE22__base_destruct_at_endB7v160006EPi, symObjAddr: 0x4E0C, symBinAddr: 0x100007CA4, symSize: 0x8C }
  - { offsetInCU: 0x111BC, offset: 0x111BC, size: 0x8, addend: 0x0, symName: __ZNSt3__116allocator_traitsINS_9allocatorIiEEE7destroyB7v160006IivEEvRS2_PT_, symObjAddr: 0x4E98, symBinAddr: 0x100007D30, symSize: 0x2C }
  - { offsetInCU: 0x111F9, offset: 0x111F9, size: 0x8, addend: 0x0, symName: __ZNSt3__19allocatorIiE7destroyB7v160006EPi, symObjAddr: 0x4EC4, symBinAddr: 0x100007D5C, symSize: 0x14 }
  - { offsetInCU: 0x1122C, offset: 0x1122C, size: 0x8, addend: 0x0, symName: __ZNSt3__19allocatorIiE10deallocateB7v160006EPim, symObjAddr: 0x4ED8, symBinAddr: 0x100007D70, symSize: 0x40 }
  - { offsetInCU: 0x1126D, offset: 0x1126D, size: 0x8, addend: 0x0, symName: __ZNSt3__117__compressed_pairIPiNS_9allocatorIiEEE6secondB7v160006Ev, symObjAddr: 0x4F18, symBinAddr: 0x100007DB0, symSize: 0x24 }
  - { offsetInCU: 0x11292, offset: 0x11292, size: 0x8, addend: 0x0, symName: __ZNSt3__122__compressed_pair_elemINS_9allocatorIiEELi1ELb1EE5__getB7v160006Ev, symObjAddr: 0x4F3C, symBinAddr: 0x100007DD4, symSize: 0x14 }
  - { offsetInCU: 0x112B7, offset: 0x112B7, size: 0x8, addend: 0x0, symName: __ZNKSt3__16vectorIiNS_9allocatorIiEEE9__end_capB7v160006Ev, symObjAddr: 0x4F50, symBinAddr: 0x100007DE8, symSize: 0x28 }
  - { offsetInCU: 0x112DC, offset: 0x112DC, size: 0x8, addend: 0x0, symName: __ZNKSt3__117__compressed_pairIPiNS_9allocatorIiEEE5firstB7v160006Ev, symObjAddr: 0x4F78, symBinAddr: 0x100007E10, symSize: 0x24 }
  - { offsetInCU: 0x11301, offset: 0x11301, size: 0x8, addend: 0x0, symName: __ZNKSt3__122__compressed_pair_elemIPiLi0ELb0EE5__getB7v160006Ev, symObjAddr: 0x4F9C, symBinAddr: 0x100007E34, symSize: 0x14 }
  - { offsetInCU: 0x11326, offset: 0x11326, size: 0x8, addend: 0x0, symName: __ZNSt3__16vectorIiNS_9allocatorIiEEE9__end_capB7v160006Ev, symObjAddr: 0x4FB0, symBinAddr: 0x100007E48, symSize: 0x28 }
  - { offsetInCU: 0x1134B, offset: 0x1134B, size: 0x8, addend: 0x0, symName: __ZNSt3__16vectorIiNS_9allocatorIiEEE22__construct_one_at_endB7v160006IJRKiEEEvDpOT_, symObjAddr: 0x4FD8, symBinAddr: 0x100007E70, symSize: 0x90 }
  - { offsetInCU: 0x11398, offset: 0x11398, size: 0x8, addend: 0x0, symName: __ZNSt3__16vectorIiNS_9allocatorIiEEE21__push_back_slow_pathIRKiEEvOT_, symObjAddr: 0x5068, symBinAddr: 0x100007F00, symSize: 0xD8 }
  - { offsetInCU: 0x113F5, offset: 0x113F5, size: 0x8, addend: 0x0, symName: __ZNSt3__117__compressed_pairIPiNS_9allocatorIiEEE5firstB7v160006Ev, symObjAddr: 0x5140, symBinAddr: 0x100007FD8, symSize: 0x24 }
  - { offsetInCU: 0x1141A, offset: 0x1141A, size: 0x8, addend: 0x0, symName: __ZNSt3__122__compressed_pair_elemIPiLi0ELb0EE5__getB7v160006Ev, symObjAddr: 0x5164, symBinAddr: 0x100007FFC, symSize: 0x14 }
  - { offsetInCU: 0x11458, offset: 0x11458, size: 0x8, addend: 0x0, symName: __ZNSt3__16vectorIiNS_9allocatorIiEEE21_ConstructTransactionC1B7v160006ERS3_m, symObjAddr: 0x5178, symBinAddr: 0x100008010, symSize: 0x3C }
  - { offsetInCU: 0x1149E, offset: 0x1149E, size: 0x8, addend: 0x0, symName: __ZNSt3__116allocator_traitsINS_9allocatorIiEEE9constructB7v160006IiJRKiEvEEvRS2_PT_DpOT0_, symObjAddr: 0x51B4, symBinAddr: 0x10000804C, symSize: 0x34 }
  - { offsetInCU: 0x114F5, offset: 0x114F5, size: 0x8, addend: 0x0, symName: __ZNSt3__16vectorIiNS_9allocatorIiEEE21_ConstructTransactionD1B7v160006Ev, symObjAddr: 0x51E8, symBinAddr: 0x100008080, symSize: 0x2C }
  - { offsetInCU: 0x1151D, offset: 0x1151D, size: 0x8, addend: 0x0, symName: __ZNSt3__16vectorIiNS_9allocatorIiEEE21_ConstructTransactionC2B7v160006ERS3_m, symObjAddr: 0x5214, symBinAddr: 0x1000080AC, symSize: 0x44 }
  - { offsetInCU: 0x11564, offset: 0x11564, size: 0x8, addend: 0x0, symName: __ZNSt3__19allocatorIiE9constructB7v160006IiJRKiEEEvPT_DpOT0_, symObjAddr: 0x5258, symBinAddr: 0x1000080F0, symSize: 0x28 }
  - { offsetInCU: 0x115B9, offset: 0x115B9, size: 0x8, addend: 0x0, symName: __ZNSt3__16vectorIiNS_9allocatorIiEEE21_ConstructTransactionD2B7v160006Ev, symObjAddr: 0x5280, symBinAddr: 0x100008118, symSize: 0x20 }
  - { offsetInCU: 0x115E1, offset: 0x115E1, size: 0x8, addend: 0x0, symName: __ZNKSt3__16vectorIiNS_9allocatorIiEEE11__recommendB7v160006Em, symObjAddr: 0x52A0, symBinAddr: 0x100008138, symSize: 0xB4 }
  - { offsetInCU: 0x11635, offset: 0x11635, size: 0x8, addend: 0x0, symName: __ZNSt3__114__split_bufferIiRNS_9allocatorIiEEEC1EmmS3_, symObjAddr: 0x5354, symBinAddr: 0x1000081EC, symSize: 0x44 }
  - { offsetInCU: 0x1168A, offset: 0x1168A, size: 0x8, addend: 0x0, symName: __ZNSt3__114__split_bufferIiRNS_9allocatorIiEEED1Ev, symObjAddr: 0x54B0, symBinAddr: 0x100008348, symSize: 0x2C }
  - { offsetInCU: 0x116B4, offset: 0x116B4, size: 0x8, addend: 0x0, symName: __ZNKSt3__16vectorIiNS_9allocatorIiEEE8max_sizeEv, symObjAddr: 0x54DC, symBinAddr: 0x100008374, symSize: 0x60 }
  - { offsetInCU: 0x116DB, offset: 0x116DB, size: 0x8, addend: 0x0, symName: __ZNKSt3__16vectorIiNS_9allocatorIiEEE20__throw_length_errorB7v160006Ev, symObjAddr: 0x553C, symBinAddr: 0x1000083D4, symSize: 0x1C }
  - { offsetInCU: 0x1170A, offset: 0x1170A, size: 0x8, addend: 0x0, symName: __ZNSt3__116allocator_traitsINS_9allocatorIiEEE8max_sizeB7v160006IS2_vEEmRKS2_, symObjAddr: 0x5584, symBinAddr: 0x10000841C, symSize: 0x24 }
  - { offsetInCU: 0x11738, offset: 0x11738, size: 0x8, addend: 0x0, symName: __ZNKSt3__16vectorIiNS_9allocatorIiEEE7__allocB7v160006Ev, symObjAddr: 0x55A8, symBinAddr: 0x100008440, symSize: 0x28 }
  - { offsetInCU: 0x1175D, offset: 0x1175D, size: 0x8, addend: 0x0, symName: __ZNSt3__114numeric_limitsIlE3maxB7v160006Ev, symObjAddr: 0x55D0, symBinAddr: 0x100008468, symSize: 0x14 }
  - { offsetInCU: 0x11771, offset: 0x11771, size: 0x8, addend: 0x0, symName: __ZNKSt3__19allocatorIiE8max_sizeB7v160006Ev, symObjAddr: 0x5638, symBinAddr: 0x1000084D0, symSize: 0x14 }
  - { offsetInCU: 0x11796, offset: 0x11796, size: 0x8, addend: 0x0, symName: __ZNKSt3__117__compressed_pairIPiNS_9allocatorIiEEE6secondB7v160006Ev, symObjAddr: 0x564C, symBinAddr: 0x1000084E4, symSize: 0x24 }
  - { offsetInCU: 0x117BB, offset: 0x117BB, size: 0x8, addend: 0x0, symName: __ZNKSt3__122__compressed_pair_elemINS_9allocatorIiEELi1ELb1EE5__getB7v160006Ev, symObjAddr: 0x5670, symBinAddr: 0x100008508, symSize: 0x14 }
  - { offsetInCU: 0x117E0, offset: 0x117E0, size: 0x8, addend: 0x0, symName: __ZNSt3__123__libcpp_numeric_limitsIlLb1EE3maxB7v160006Ev, symObjAddr: 0x5684, symBinAddr: 0x10000851C, symSize: 0x8 }
  - { offsetInCU: 0x117F4, offset: 0x117F4, size: 0x8, addend: 0x0, symName: __ZNSt12length_errorC1B7v160006EPKc, symObjAddr: 0x56F0, symBinAddr: 0x100008588, symSize: 0x34 }
  - { offsetInCU: 0x1182A, offset: 0x1182A, size: 0x8, addend: 0x0, symName: __ZNSt12length_errorC2B7v160006EPKc, symObjAddr: 0x5724, symBinAddr: 0x1000085BC, symSize: 0x4C }
  - { offsetInCU: 0x11860, offset: 0x11860, size: 0x8, addend: 0x0, symName: __ZNSt3__114__split_bufferIiRNS_9allocatorIiEEEC2EmmS3_, symObjAddr: 0x5770, symBinAddr: 0x100008608, symSize: 0xD4 }
  - { offsetInCU: 0x118D3, offset: 0x118D3, size: 0x8, addend: 0x0, symName: __ZNSt3__117__compressed_pairIPiRNS_9allocatorIiEEEC1B7v160006IDnS4_EEOT_OT0_, symObjAddr: 0x5844, symBinAddr: 0x1000086DC, symSize: 0x3C }
  - { offsetInCU: 0x11929, offset: 0x11929, size: 0x8, addend: 0x0, symName: __ZNSt3__114__split_bufferIiRNS_9allocatorIiEEE7__allocB7v160006Ev, symObjAddr: 0x58C0, symBinAddr: 0x100008758, symSize: 0x28 }
  - { offsetInCU: 0x1194E, offset: 0x1194E, size: 0x8, addend: 0x0, symName: __ZNSt3__114__split_bufferIiRNS_9allocatorIiEEE9__end_capB7v160006Ev, symObjAddr: 0x58E8, symBinAddr: 0x100008780, symSize: 0x28 }
  - { offsetInCU: 0x11973, offset: 0x11973, size: 0x8, addend: 0x0, symName: __ZNSt3__117__compressed_pairIPiRNS_9allocatorIiEEEC2B7v160006IDnS4_EEOT_OT0_, symObjAddr: 0x5910, symBinAddr: 0x1000087A8, symSize: 0x48 }
  - { offsetInCU: 0x119C9, offset: 0x119C9, size: 0x8, addend: 0x0, symName: __ZNSt3__122__compressed_pair_elemIRNS_9allocatorIiEELi1ELb0EEC2B7v160006IS3_vEEOT_, symObjAddr: 0x5958, symBinAddr: 0x1000087F0, symSize: 0x20 }
  - { offsetInCU: 0x11A0A, offset: 0x11A0A, size: 0x8, addend: 0x0, symName: __ZNSt3__19allocatorIiE8allocateB7v160006Em, symObjAddr: 0x5978, symBinAddr: 0x100008810, symSize: 0x58 }
  - { offsetInCU: 0x11A3D, offset: 0x11A3D, size: 0x8, addend: 0x0, symName: __ZNSt3__117__compressed_pairIPiRNS_9allocatorIiEEE6secondB7v160006Ev, symObjAddr: 0x59D0, symBinAddr: 0x100008868, symSize: 0x28 }
  - { offsetInCU: 0x11A62, offset: 0x11A62, size: 0x8, addend: 0x0, symName: __ZNSt3__122__compressed_pair_elemIRNS_9allocatorIiEELi1ELb0EE5__getB7v160006Ev, symObjAddr: 0x59F8, symBinAddr: 0x100008890, symSize: 0x18 }
  - { offsetInCU: 0x11A87, offset: 0x11A87, size: 0x8, addend: 0x0, symName: __ZNSt3__117__compressed_pairIPiRNS_9allocatorIiEEE5firstB7v160006Ev, symObjAddr: 0x5A10, symBinAddr: 0x1000088A8, symSize: 0x24 }
  - { offsetInCU: 0x11AAC, offset: 0x11AAC, size: 0x8, addend: 0x0, symName: __ZNSt3__116reverse_iteratorIPiEC1B7v160006ES1_, symObjAddr: 0x5AAC, symBinAddr: 0x100008944, symSize: 0x34 }
  - { offsetInCU: 0x11AE2, offset: 0x11AE2, size: 0x8, addend: 0x0, symName: __ZNKSt3__116reverse_iteratorIPiE4baseB7v160006Ev, symObjAddr: 0x5AE0, symBinAddr: 0x100008978, symSize: 0x18 }
  - { offsetInCU: 0x11B07, offset: 0x11B07, size: 0x8, addend: 0x0, symName: __ZNKSt3__16vectorIiNS_9allocatorIiEEE14__annotate_newB7v160006Em, symObjAddr: 0x5B34, symBinAddr: 0x1000089CC, symSize: 0xAC }
  - { offsetInCU: 0x11B5E, offset: 0x11B5E, size: 0x8, addend: 0x0, symName: __ZNKSt3__111__move_loopINS_17_ClassicAlgPolicyEEclB7v160006INS_16reverse_iteratorIPiEES6_S6_EENS_4pairIT_T1_EES8_T0_S9_, symObjAddr: 0x5EE0, symBinAddr: 0x100008D78, symSize: 0xA0 }
  - { offsetInCU: 0x11BC8, offset: 0x11BC8, size: 0x8, addend: 0x0, symName: __ZNSt3__18_IterOpsINS_17_ClassicAlgPolicyEE11__iter_moveB7v160006IRNS_16reverse_iteratorIPiEEEENS_9enable_ifIXsr12is_referenceIDTdeclsr3stdE7declvalIRT_EEEEE5valueEDTclsr3stdE4movedeclsr3stdE7declvalISA_EEEEE4typeEOS9_, symObjAddr: 0x6114, symBinAddr: 0x100008FAC, symSize: 0x28 }
  - { offsetInCU: 0x11BF4, offset: 0x11BF4, size: 0x8, addend: 0x0, symName: __ZNKSt3__116reverse_iteratorIPiEdeB7v160006Ev, symObjAddr: 0x613C, symBinAddr: 0x100008FD4, symSize: 0x28 }
  - { offsetInCU: 0x11C27, offset: 0x11C27, size: 0x8, addend: 0x0, symName: __ZNSt3__116reverse_iteratorIPiEppB7v160006Ev, symObjAddr: 0x6164, symBinAddr: 0x100008FFC, symSize: 0x20 }
  - { offsetInCU: 0x11C4C, offset: 0x11C4C, size: 0x8, addend: 0x0, symName: __ZNSt3__18_IterOpsINS_17_ClassicAlgPolicyEE25__validate_iter_referenceB7v160006IRNS_16reverse_iteratorIPiEEEEvv, symObjAddr: 0x6184, symBinAddr: 0x10000901C, symSize: 0x4 }
  - { offsetInCU: 0x11C6A, offset: 0x11C6A, size: 0x8, addend: 0x0, symName: __ZNSt3__118__unwrap_iter_implINS_16reverse_iteratorIPiEELb0EE8__unwrapB7v160006ES3_, symObjAddr: 0x6188, symBinAddr: 0x100009020, symSize: 0x24 }
  - { offsetInCU: 0x11C92, offset: 0x11C92, size: 0x8, addend: 0x0, symName: __ZNSt3__14pairINS_16reverse_iteratorIPiEES3_EC1B7v160006IS3_S3_LPv0EEEOT_OT0_, symObjAddr: 0x61AC, symBinAddr: 0x100009044, symSize: 0x3C }
  - { offsetInCU: 0x11CEE, offset: 0x11CEE, size: 0x8, addend: 0x0, symName: __ZNSt3__14pairINS_16reverse_iteratorIPiEES3_EC2B7v160006IS3_S3_LPv0EEEOT_OT0_, symObjAddr: 0x61E8, symBinAddr: 0x100009080, symSize: 0x34 }
  - { offsetInCU: 0x11D4B, offset: 0x11D4B, size: 0x8, addend: 0x0, symName: __ZNSt3__118__unwrap_iter_implINS_16reverse_iteratorIPiEELb0EE8__rewrapB7v160006ES3_S3_, symObjAddr: 0x621C, symBinAddr: 0x1000090B4, symSize: 0x2C }
  - { offsetInCU: 0x11D78, offset: 0x11D78, size: 0x8, addend: 0x0, symName: __ZNSt3__116reverse_iteratorIPiEC2B7v160006ES1_, symObjAddr: 0x6248, symBinAddr: 0x1000090E0, symSize: 0x28 }
  - { offsetInCU: 0x11DAF, offset: 0x11DAF, size: 0x8, addend: 0x0, symName: __ZNSt3__114__split_bufferIiRNS_9allocatorIiEEED2Ev, symObjAddr: 0x6270, symBinAddr: 0x100009108, symSize: 0x8C }
  - { offsetInCU: 0x11DDA, offset: 0x11DDA, size: 0x8, addend: 0x0, symName: __ZNSt3__114__split_bufferIiRNS_9allocatorIiEEE5clearB7v160006Ev, symObjAddr: 0x62FC, symBinAddr: 0x100009194, symSize: 0x28 }
  - { offsetInCU: 0x11DFF, offset: 0x11DFF, size: 0x8, addend: 0x0, symName: __ZNKSt3__114__split_bufferIiRNS_9allocatorIiEEE8capacityB7v160006Ev, symObjAddr: 0x6324, symBinAddr: 0x1000091BC, symSize: 0x40 }
  - { offsetInCU: 0x11E24, offset: 0x11E24, size: 0x8, addend: 0x0, symName: __ZNSt3__114__split_bufferIiRNS_9allocatorIiEEE17__destruct_at_endB7v160006EPi, symObjAddr: 0x6364, symBinAddr: 0x1000091FC, symSize: 0x2C }
  - { offsetInCU: 0x11E56, offset: 0x11E56, size: 0x8, addend: 0x0, symName: __ZNSt3__114__split_bufferIiRNS_9allocatorIiEEE17__destruct_at_endB7v160006EPiNS_17integral_constantIbLb0EEE, symObjAddr: 0x6390, symBinAddr: 0x100009228, symSize: 0x80 }
  - { offsetInCU: 0x11E95, offset: 0x11E95, size: 0x8, addend: 0x0, symName: __ZNKSt3__114__split_bufferIiRNS_9allocatorIiEEE9__end_capB7v160006Ev, symObjAddr: 0x6410, symBinAddr: 0x1000092A8, symSize: 0x28 }
  - { offsetInCU: 0x11EBA, offset: 0x11EBA, size: 0x8, addend: 0x0, symName: __ZNKSt3__117__compressed_pairIPiRNS_9allocatorIiEEE5firstB7v160006Ev, symObjAddr: 0x6438, symBinAddr: 0x1000092D0, symSize: 0x24 }
  - { offsetInCU: 0x11EDF, offset: 0x11EDF, size: 0x8, addend: 0x0, symName: __ZNSt3__16vectorIiNS_9allocatorIiEEE22__construct_one_at_endB7v160006IJiEEEvDpOT_, symObjAddr: 0x645C, symBinAddr: 0x1000092F4, symSize: 0x90 }
  - { offsetInCU: 0x11F2C, offset: 0x11F2C, size: 0x8, addend: 0x0, symName: __ZNSt3__16vectorIiNS_9allocatorIiEEE21__push_back_slow_pathIiEEvOT_, symObjAddr: 0x64EC, symBinAddr: 0x100009384, symSize: 0xD8 }
  - { offsetInCU: 0x11F89, offset: 0x11F89, size: 0x8, addend: 0x0, symName: __ZNSt3__116allocator_traitsINS_9allocatorIiEEE9constructB7v160006IiJiEvEEvRS2_PT_DpOT0_, symObjAddr: 0x65C4, symBinAddr: 0x10000945C, symSize: 0x34 }
  - { offsetInCU: 0x11FE0, offset: 0x11FE0, size: 0x8, addend: 0x0, symName: __ZNSt3__19allocatorIiE9constructB7v160006IiJiEEEvPT_DpOT0_, symObjAddr: 0x65F8, symBinAddr: 0x100009490, symSize: 0x28 }
  - { offsetInCU: 0x12035, offset: 0x12035, size: 0x8, addend: 0x0, symName: __ZNSt3__16vectorINS0_IiNS_9allocatorIiEEEENS1_IS3_EEE9__end_capB7v160006Ev, symObjAddr: 0x6620, symBinAddr: 0x1000094B8, symSize: 0x28 }
  - { offsetInCU: 0x1205A, offset: 0x1205A, size: 0x8, addend: 0x0, symName: __ZNSt3__16vectorINS0_IiNS_9allocatorIiEEEENS1_IS3_EEE22__construct_one_at_endB7v160006IJRKS3_EEEvDpOT_, symObjAddr: 0x6648, symBinAddr: 0x1000094E0, symSize: 0x90 }
  - { offsetInCU: 0x120A7, offset: 0x120A7, size: 0x8, addend: 0x0, symName: __ZNSt3__16vectorINS0_IiNS_9allocatorIiEEEENS1_IS3_EEE21__push_back_slow_pathIRKS3_EEvOT_, symObjAddr: 0x66D8, symBinAddr: 0x100009570, symSize: 0xD8 }
  - { offsetInCU: 0x12104, offset: 0x12104, size: 0x8, addend: 0x0, symName: __ZNSt3__117__compressed_pairIPNS_6vectorIiNS_9allocatorIiEEEENS2_IS4_EEE5firstB7v160006Ev, symObjAddr: 0x67B0, symBinAddr: 0x100009648, symSize: 0x24 }
  - { offsetInCU: 0x12129, offset: 0x12129, size: 0x8, addend: 0x0, symName: __ZNSt3__122__compressed_pair_elemIPNS_6vectorIiNS_9allocatorIiEEEELi0ELb0EE5__getB7v160006Ev, symObjAddr: 0x67D4, symBinAddr: 0x10000966C, symSize: 0x14 }
  - { offsetInCU: 0x12167, offset: 0x12167, size: 0x8, addend: 0x0, symName: __ZNSt3__16vectorINS0_IiNS_9allocatorIiEEEENS1_IS3_EEE21_ConstructTransactionC1B7v160006ERS5_m, symObjAddr: 0x67E8, symBinAddr: 0x100009680, symSize: 0x3C }
  - { offsetInCU: 0x121AD, offset: 0x121AD, size: 0x8, addend: 0x0, symName: __ZNSt3__116allocator_traitsINS_9allocatorINS_6vectorIiNS1_IiEEEEEEE9constructB7v160006IS4_JRKS4_EvEEvRS5_PT_DpOT0_, symObjAddr: 0x6824, symBinAddr: 0x1000096BC, symSize: 0x34 }
  - { offsetInCU: 0x12204, offset: 0x12204, size: 0x8, addend: 0x0, symName: __ZNSt3__16vectorINS0_IiNS_9allocatorIiEEEENS1_IS3_EEE21_ConstructTransactionD1B7v160006Ev, symObjAddr: 0x6858, symBinAddr: 0x1000096F0, symSize: 0x2C }
  - { offsetInCU: 0x1222C, offset: 0x1222C, size: 0x8, addend: 0x0, symName: __ZNSt3__16vectorINS0_IiNS_9allocatorIiEEEENS1_IS3_EEE21_ConstructTransactionC2B7v160006ERS5_m, symObjAddr: 0x6884, symBinAddr: 0x10000971C, symSize: 0x4C }
  - { offsetInCU: 0x12273, offset: 0x12273, size: 0x8, addend: 0x0, symName: __ZNSt3__19allocatorINS_6vectorIiNS0_IiEEEEE9constructB7v160006IS3_JRKS3_EEEvPT_DpOT0_, symObjAddr: 0x68D0, symBinAddr: 0x100009768, symSize: 0x30 }
  - { offsetInCU: 0x122C8, offset: 0x122C8, size: 0x8, addend: 0x0, symName: __ZNSt3__16vectorIiNS_9allocatorIiEEEC1ERKS3_, symObjAddr: 0x6900, symBinAddr: 0x100009798, symSize: 0x34 }
  - { offsetInCU: 0x12302, offset: 0x12302, size: 0x8, addend: 0x0, symName: __ZNSt3__16vectorIiNS_9allocatorIiEEEC2ERKS3_, symObjAddr: 0x6934, symBinAddr: 0x1000097CC, symSize: 0x110 }
  - { offsetInCU: 0x12361, offset: 0x12361, size: 0x8, addend: 0x0, symName: __ZNSt3__116allocator_traitsINS_9allocatorIiEEE37select_on_container_copy_constructionB7v160006IS2_vvEES2_RKS2_, symObjAddr: 0x6A44, symBinAddr: 0x1000098DC, symSize: 0x10 }
  - { offsetInCU: 0x12395, offset: 0x12395, size: 0x8, addend: 0x0, symName: __ZNSt3__117__compressed_pairIPiNS_9allocatorIiEEEC1B7v160006IDnS3_EEOT_OT0_, symObjAddr: 0x6A54, symBinAddr: 0x1000098EC, symSize: 0x3C }
  - { offsetInCU: 0x123EB, offset: 0x123EB, size: 0x8, addend: 0x0, symName: __ZNSt3__16vectorIiNS_9allocatorIiEEE11__vallocateB7v160006Em, symObjAddr: 0x6AD0, symBinAddr: 0x100009968, symSize: 0xAC }
  - { offsetInCU: 0x1242D, offset: 0x1242D, size: 0x8, addend: 0x0, symName: __ZNSt3__16vectorIiNS_9allocatorIiEEE18__construct_at_endIPiLi0EEEvT_S6_m, symObjAddr: 0x6B7C, symBinAddr: 0x100009A14, symSize: 0x8C }
  - { offsetInCU: 0x1249F, offset: 0x1249F, size: 0x8, addend: 0x0, symName: __ZNSt3__128__exception_guard_exceptionsINS_6vectorIiNS_9allocatorIiEEE16__destroy_vectorEE10__completeB7v160006Ev, symObjAddr: 0x6C08, symBinAddr: 0x100009AA0, symSize: 0x1C }
  - { offsetInCU: 0x124C4, offset: 0x124C4, size: 0x8, addend: 0x0, symName: __ZNSt3__128__exception_guard_exceptionsINS_6vectorIiNS_9allocatorIiEEE16__destroy_vectorEED1B7v160006Ev, symObjAddr: 0x6C24, symBinAddr: 0x100009ABC, symSize: 0x2C }
  - { offsetInCU: 0x124EC, offset: 0x124EC, size: 0x8, addend: 0x0, symName: __ZNSt3__117__compressed_pairIPiNS_9allocatorIiEEEC2B7v160006IDnS3_EEOT_OT0_, symObjAddr: 0x6C50, symBinAddr: 0x100009AE8, symSize: 0x44 }
  - { offsetInCU: 0x12542, offset: 0x12542, size: 0x8, addend: 0x0, symName: __ZNSt3__122__compressed_pair_elemINS_9allocatorIiEELi1ELb1EEC2B7v160006IS2_vEEOT_, symObjAddr: 0x6C94, symBinAddr: 0x100009B2C, symSize: 0x18 }
  - { offsetInCU: 0x12583, offset: 0x12583, size: 0x8, addend: 0x0, symName: __ZNSt3__128__exception_guard_exceptionsINS_6vectorIiNS_9allocatorIiEEE16__destroy_vectorEEC1B7v160006ES5_, symObjAddr: 0x6CAC, symBinAddr: 0x100009B44, symSize: 0x34 }
  - { offsetInCU: 0x125B9, offset: 0x125B9, size: 0x8, addend: 0x0, symName: __ZNSt3__128__exception_guard_exceptionsINS_6vectorIiNS_9allocatorIiEEE16__destroy_vectorEEC2B7v160006ES5_, symObjAddr: 0x6CE0, symBinAddr: 0x100009B78, symSize: 0x24 }
  - { offsetInCU: 0x125F0, offset: 0x125F0, size: 0x8, addend: 0x0, symName: __ZNSt3__129_AllocatorDestroyRangeReverseINS_9allocatorIiEEPiEC1B7v160006ERS2_RS3_S6_, symObjAddr: 0x6E44, symBinAddr: 0x100009CDC, symSize: 0x44 }
  - { offsetInCU: 0x12645, offset: 0x12645, size: 0x8, addend: 0x0, symName: __ZNSt3__116allocator_traitsINS_9allocatorIiEEE9constructB7v160006IiJRiEvEEvRS2_PT_DpOT0_, symObjAddr: 0x6E88, symBinAddr: 0x100009D20, symSize: 0x34 }
  - { offsetInCU: 0x1269C, offset: 0x1269C, size: 0x8, addend: 0x0, symName: __ZNSt3__128__exception_guard_exceptionsINS_29_AllocatorDestroyRangeReverseINS_9allocatorIiEEPiEEE10__completeB7v160006Ev, symObjAddr: 0x6EBC, symBinAddr: 0x100009D54, symSize: 0x1C }
  - { offsetInCU: 0x126C1, offset: 0x126C1, size: 0x8, addend: 0x0, symName: __ZNSt3__128__exception_guard_exceptionsINS_29_AllocatorDestroyRangeReverseINS_9allocatorIiEEPiEEED1B7v160006Ev, symObjAddr: 0x6ED8, symBinAddr: 0x100009D70, symSize: 0x2C }
  - { offsetInCU: 0x126E9, offset: 0x126E9, size: 0x8, addend: 0x0, symName: __ZNSt3__128__exception_guard_exceptionsINS_29_AllocatorDestroyRangeReverseINS_9allocatorIiEEPiEEEC1B7v160006ES5_, symObjAddr: 0x6F04, symBinAddr: 0x100009D9C, symSize: 0x34 }
  - { offsetInCU: 0x12720, offset: 0x12720, size: 0x8, addend: 0x0, symName: __ZNSt3__128__exception_guard_exceptionsINS_29_AllocatorDestroyRangeReverseINS_9allocatorIiEEPiEEEC2B7v160006ES5_, symObjAddr: 0x6F38, symBinAddr: 0x100009DD0, symSize: 0x30 }
  - { offsetInCU: 0x12758, offset: 0x12758, size: 0x8, addend: 0x0, symName: __ZNSt3__129_AllocatorDestroyRangeReverseINS_9allocatorIiEEPiEC2B7v160006ERS2_RS3_S6_, symObjAddr: 0x6F68, symBinAddr: 0x100009E00, symSize: 0x38 }
  - { offsetInCU: 0x127AE, offset: 0x127AE, size: 0x8, addend: 0x0, symName: __ZNSt3__19allocatorIiE9constructB7v160006IiJRiEEEvPT_DpOT0_, symObjAddr: 0x6FA0, symBinAddr: 0x100009E38, symSize: 0x28 }
  - { offsetInCU: 0x12803, offset: 0x12803, size: 0x8, addend: 0x0, symName: __ZNSt3__128__exception_guard_exceptionsINS_29_AllocatorDestroyRangeReverseINS_9allocatorIiEEPiEEED2B7v160006Ev, symObjAddr: 0x6FC8, symBinAddr: 0x100009E60, symSize: 0x50 }
  - { offsetInCU: 0x1282B, offset: 0x1282B, size: 0x8, addend: 0x0, symName: __ZNKSt3__129_AllocatorDestroyRangeReverseINS_9allocatorIiEEPiEclB7v160006Ev, symObjAddr: 0x7018, symBinAddr: 0x100009EB0, symSize: 0x68 }
  - { offsetInCU: 0x12855, offset: 0x12855, size: 0x8, addend: 0x0, symName: __ZNSt3__119__to_address_helperINS_16reverse_iteratorIPiEEvE6__callB7v160006ERKS3_, symObjAddr: 0x7114, symBinAddr: 0x100009FAC, symSize: 0x38 }
  - { offsetInCU: 0x12878, offset: 0x12878, size: 0x8, addend: 0x0, symName: __ZNKSt3__116reverse_iteratorIPiEptB7v160006Ev, symObjAddr: 0x714C, symBinAddr: 0x100009FE4, symSize: 0x24 }
  - { offsetInCU: 0x1289D, offset: 0x1289D, size: 0x8, addend: 0x0, symName: __ZNSt3__128__exception_guard_exceptionsINS_6vectorIiNS_9allocatorIiEEE16__destroy_vectorEED2B7v160006Ev, symObjAddr: 0x7170, symBinAddr: 0x10000A008, symSize: 0x50 }
  - { offsetInCU: 0x128C5, offset: 0x128C5, size: 0x8, addend: 0x0, symName: __ZNSt3__16vectorINS0_IiNS_9allocatorIiEEEENS1_IS3_EEE21_ConstructTransactionD2B7v160006Ev, symObjAddr: 0x71C0, symBinAddr: 0x10000A058, symSize: 0x20 }
  - { offsetInCU: 0x128ED, offset: 0x128ED, size: 0x8, addend: 0x0, symName: __ZNKSt3__16vectorINS0_IiNS_9allocatorIiEEEENS1_IS3_EEE11__recommendB7v160006Em, symObjAddr: 0x71E0, symBinAddr: 0x10000A078, symSize: 0xB4 }
  - { offsetInCU: 0x12941, offset: 0x12941, size: 0x8, addend: 0x0, symName: __ZNSt3__114__split_bufferINS_6vectorIiNS_9allocatorIiEEEERNS2_IS4_EEEC1EmmS6_, symObjAddr: 0x7294, symBinAddr: 0x10000A12C, symSize: 0x44 }
  - { offsetInCU: 0x12996, offset: 0x12996, size: 0x8, addend: 0x0, symName: __ZNSt3__114__split_bufferINS_6vectorIiNS_9allocatorIiEEEERNS2_IS4_EEED1Ev, symObjAddr: 0x73F0, symBinAddr: 0x10000A288, symSize: 0x2C }
  - { offsetInCU: 0x129C0, offset: 0x129C0, size: 0x8, addend: 0x0, symName: __ZNKSt3__16vectorINS0_IiNS_9allocatorIiEEEENS1_IS3_EEE8max_sizeEv, symObjAddr: 0x741C, symBinAddr: 0x10000A2B4, symSize: 0x60 }
  - { offsetInCU: 0x129E7, offset: 0x129E7, size: 0x8, addend: 0x0, symName: __ZNKSt3__16vectorINS0_IiNS_9allocatorIiEEEENS1_IS3_EEE20__throw_length_errorB7v160006Ev, symObjAddr: 0x747C, symBinAddr: 0x10000A314, symSize: 0x1C }
  - { offsetInCU: 0x12A16, offset: 0x12A16, size: 0x8, addend: 0x0, symName: __ZNSt3__116allocator_traitsINS_9allocatorINS_6vectorIiNS1_IiEEEEEEE8max_sizeB7v160006IS5_vEEmRKS5_, symObjAddr: 0x7498, symBinAddr: 0x10000A330, symSize: 0x24 }
  - { offsetInCU: 0x12A44, offset: 0x12A44, size: 0x8, addend: 0x0, symName: __ZNKSt3__16vectorINS0_IiNS_9allocatorIiEEEENS1_IS3_EEE7__allocB7v160006Ev, symObjAddr: 0x74BC, symBinAddr: 0x10000A354, symSize: 0x28 }
  - { offsetInCU: 0x12A69, offset: 0x12A69, size: 0x8, addend: 0x0, symName: __ZNKSt3__19allocatorINS_6vectorIiNS0_IiEEEEE8max_sizeB7v160006Ev, symObjAddr: 0x74E4, symBinAddr: 0x10000A37C, symSize: 0x18 }
  - { offsetInCU: 0x12A8E, offset: 0x12A8E, size: 0x8, addend: 0x0, symName: __ZNKSt3__117__compressed_pairIPNS_6vectorIiNS_9allocatorIiEEEENS2_IS4_EEE6secondB7v160006Ev, symObjAddr: 0x74FC, symBinAddr: 0x10000A394, symSize: 0x24 }
  - { offsetInCU: 0x12AB3, offset: 0x12AB3, size: 0x8, addend: 0x0, symName: __ZNKSt3__122__compressed_pair_elemINS_9allocatorINS_6vectorIiNS1_IiEEEEEELi1ELb1EE5__getB7v160006Ev, symObjAddr: 0x7520, symBinAddr: 0x10000A3B8, symSize: 0x14 }
  - { offsetInCU: 0x12AD8, offset: 0x12AD8, size: 0x8, addend: 0x0, symName: __ZNSt3__114__split_bufferINS_6vectorIiNS_9allocatorIiEEEERNS2_IS4_EEEC2EmmS6_, symObjAddr: 0x7534, symBinAddr: 0x10000A3CC, symSize: 0xE0 }
  - { offsetInCU: 0x12B4B, offset: 0x12B4B, size: 0x8, addend: 0x0, symName: __ZNSt3__117__compressed_pairIPNS_6vectorIiNS_9allocatorIiEEEERNS2_IS4_EEEC1B7v160006IDnS7_EEOT_OT0_, symObjAddr: 0x7614, symBinAddr: 0x10000A4AC, symSize: 0x3C }
  - { offsetInCU: 0x12BA1, offset: 0x12BA1, size: 0x8, addend: 0x0, symName: __ZNSt3__114__split_bufferINS_6vectorIiNS_9allocatorIiEEEERNS2_IS4_EEE7__allocB7v160006Ev, symObjAddr: 0x7690, symBinAddr: 0x10000A528, symSize: 0x28 }
  - { offsetInCU: 0x12BC6, offset: 0x12BC6, size: 0x8, addend: 0x0, symName: __ZNSt3__114__split_bufferINS_6vectorIiNS_9allocatorIiEEEERNS2_IS4_EEE9__end_capB7v160006Ev, symObjAddr: 0x76B8, symBinAddr: 0x10000A550, symSize: 0x28 }
  - { offsetInCU: 0x12BEB, offset: 0x12BEB, size: 0x8, addend: 0x0, symName: __ZNSt3__117__compressed_pairIPNS_6vectorIiNS_9allocatorIiEEEERNS2_IS4_EEEC2B7v160006IDnS7_EEOT_OT0_, symObjAddr: 0x76E0, symBinAddr: 0x10000A578, symSize: 0x48 }
  - { offsetInCU: 0x12C41, offset: 0x12C41, size: 0x8, addend: 0x0, symName: __ZNSt3__122__compressed_pair_elemIRNS_9allocatorINS_6vectorIiNS1_IiEEEEEELi1ELb0EEC2B7v160006IS6_vEEOT_, symObjAddr: 0x7728, symBinAddr: 0x10000A5C0, symSize: 0x20 }
  - { offsetInCU: 0x12C82, offset: 0x12C82, size: 0x8, addend: 0x0, symName: __ZNSt3__19allocatorINS_6vectorIiNS0_IiEEEEE8allocateB7v160006Em, symObjAddr: 0x7748, symBinAddr: 0x10000A5E0, symSize: 0x5C }
  - { offsetInCU: 0x12CB5, offset: 0x12CB5, size: 0x8, addend: 0x0, symName: __ZNSt3__117__compressed_pairIPNS_6vectorIiNS_9allocatorIiEEEERNS2_IS4_EEE6secondB7v160006Ev, symObjAddr: 0x77A4, symBinAddr: 0x10000A63C, symSize: 0x28 }
  - { offsetInCU: 0x12CDA, offset: 0x12CDA, size: 0x8, addend: 0x0, symName: __ZNSt3__122__compressed_pair_elemIRNS_9allocatorINS_6vectorIiNS1_IiEEEEEELi1ELb0EE5__getB7v160006Ev, symObjAddr: 0x77CC, symBinAddr: 0x10000A664, symSize: 0x18 }
  - { offsetInCU: 0x12CFF, offset: 0x12CFF, size: 0x8, addend: 0x0, symName: __ZNSt3__117__compressed_pairIPNS_6vectorIiNS_9allocatorIiEEEERNS2_IS4_EEE5firstB7v160006Ev, symObjAddr: 0x77E4, symBinAddr: 0x10000A67C, symSize: 0x24 }
  - { offsetInCU: 0x12D24, offset: 0x12D24, size: 0x8, addend: 0x0, symName: __ZNSt3__116reverse_iteratorIPNS_6vectorIiNS_9allocatorIiEEEEEC1B7v160006ES5_, symObjAddr: 0x7934, symBinAddr: 0x10000A7CC, symSize: 0x34 }
  - { offsetInCU: 0x12D5A, offset: 0x12D5A, size: 0x8, addend: 0x0, symName: __ZNKSt3__116reverse_iteratorIPNS_6vectorIiNS_9allocatorIiEEEEE4baseB7v160006Ev, symObjAddr: 0x7968, symBinAddr: 0x10000A800, symSize: 0x18 }
  - { offsetInCU: 0x12D7F, offset: 0x12D7F, size: 0x8, addend: 0x0, symName: __ZNKSt3__16vectorINS0_IiNS_9allocatorIiEEEENS1_IS3_EEE14__annotate_newB7v160006Em, symObjAddr: 0x79BC, symBinAddr: 0x10000A854, symSize: 0xC8 }
  - { offsetInCU: 0x12DB3, offset: 0x12DB3, size: 0x8, addend: 0x0, symName: __ZNSt3__129_AllocatorDestroyRangeReverseINS_9allocatorINS_6vectorIiNS1_IiEEEEEENS_16reverse_iteratorIPS4_EEEC1B7v160006ERS5_RS8_SB_, symObjAddr: 0x7AE0, symBinAddr: 0x10000A978, symSize: 0x44 }
  - { offsetInCU: 0x12E08, offset: 0x12E08, size: 0x8, addend: 0x0, symName: __ZNSt3__116allocator_traitsINS_9allocatorINS_6vectorIiNS1_IiEEEEEEE9constructB7v160006IS4_JS4_EvEEvRS5_PT_DpOT0_, symObjAddr: 0x7B6C, symBinAddr: 0x10000AA04, symSize: 0x34 }
  - { offsetInCU: 0x12E5F, offset: 0x12E5F, size: 0x8, addend: 0x0, symName: __ZNKSt3__116reverse_iteratorIPNS_6vectorIiNS_9allocatorIiEEEEEdeB7v160006Ev, symObjAddr: 0x7BC4, symBinAddr: 0x10000AA5C, symSize: 0x28 }
  - { offsetInCU: 0x12E92, offset: 0x12E92, size: 0x8, addend: 0x0, symName: __ZNSt3__116reverse_iteratorIPNS_6vectorIiNS_9allocatorIiEEEEEppB7v160006Ev, symObjAddr: 0x7BEC, symBinAddr: 0x10000AA84, symSize: 0x20 }
  - { offsetInCU: 0x12EB7, offset: 0x12EB7, size: 0x8, addend: 0x0, symName: __ZNSt3__128__exception_guard_exceptionsINS_29_AllocatorDestroyRangeReverseINS_9allocatorINS_6vectorIiNS2_IiEEEEEENS_16reverse_iteratorIPS5_EEEEE10__completeB7v160006Ev, symObjAddr: 0x7C0C, symBinAddr: 0x10000AAA4, symSize: 0x1C }
  - { offsetInCU: 0x12EDC, offset: 0x12EDC, size: 0x8, addend: 0x0, symName: __ZNSt3__128__exception_guard_exceptionsINS_29_AllocatorDestroyRangeReverseINS_9allocatorINS_6vectorIiNS2_IiEEEEEENS_16reverse_iteratorIPS5_EEEEED1B7v160006Ev, symObjAddr: 0x7C28, symBinAddr: 0x10000AAC0, symSize: 0x2C }
  - { offsetInCU: 0x12F04, offset: 0x12F04, size: 0x8, addend: 0x0, symName: __ZNSt3__128__exception_guard_exceptionsINS_29_AllocatorDestroyRangeReverseINS_9allocatorINS_6vectorIiNS2_IiEEEEEENS_16reverse_iteratorIPS5_EEEEEC1B7v160006ESA_, symObjAddr: 0x7C54, symBinAddr: 0x10000AAEC, symSize: 0x34 }
  - { offsetInCU: 0x12F3B, offset: 0x12F3B, size: 0x8, addend: 0x0, symName: __ZNSt3__128__exception_guard_exceptionsINS_29_AllocatorDestroyRangeReverseINS_9allocatorINS_6vectorIiNS2_IiEEEEEENS_16reverse_iteratorIPS5_EEEEEC2B7v160006ESA_, symObjAddr: 0x7C88, symBinAddr: 0x10000AB20, symSize: 0x30 }
  - { offsetInCU: 0x12F73, offset: 0x12F73, size: 0x8, addend: 0x0, symName: __ZNSt3__129_AllocatorDestroyRangeReverseINS_9allocatorINS_6vectorIiNS1_IiEEEEEENS_16reverse_iteratorIPS4_EEEC2B7v160006ERS5_RS8_SB_, symObjAddr: 0x7CB8, symBinAddr: 0x10000AB50, symSize: 0x38 }
  - { offsetInCU: 0x12FC9, offset: 0x12FC9, size: 0x8, addend: 0x0, symName: __ZNSt3__19allocatorINS_6vectorIiNS0_IiEEEEE9constructB7v160006IS3_JS3_EEEvPT_DpOT0_, symObjAddr: 0x7CF0, symBinAddr: 0x10000AB88, symSize: 0x30 }
  - { offsetInCU: 0x1301E, offset: 0x1301E, size: 0x8, addend: 0x0, symName: __ZNSt3__16vectorIiNS_9allocatorIiEEEC1B7v160006EOS3_, symObjAddr: 0x7D20, symBinAddr: 0x10000ABB8, symSize: 0x34 }
  - { offsetInCU: 0x13058, offset: 0x13058, size: 0x8, addend: 0x0, symName: __ZNSt3__16vectorIiNS_9allocatorIiEEEC2B7v160006EOS3_, symObjAddr: 0x7D54, symBinAddr: 0x10000ABEC, symSize: 0xDC }
  - { offsetInCU: 0x13097, offset: 0x13097, size: 0x8, addend: 0x0, symName: __ZNSt3__119__to_address_helperINS_16reverse_iteratorIPNS_6vectorIiNS_9allocatorIiEEEEEEvE6__callB7v160006ERKS7_, symObjAddr: 0x7E44, symBinAddr: 0x10000ACDC, symSize: 0x38 }
  - { offsetInCU: 0x130BA, offset: 0x130BA, size: 0x8, addend: 0x0, symName: __ZNKSt3__116reverse_iteratorIPNS_6vectorIiNS_9allocatorIiEEEEEptB7v160006Ev, symObjAddr: 0x7E7C, symBinAddr: 0x10000AD14, symSize: 0x24 }
  - { offsetInCU: 0x130DF, offset: 0x130DF, size: 0x8, addend: 0x0, symName: __ZNSt3__128__exception_guard_exceptionsINS_29_AllocatorDestroyRangeReverseINS_9allocatorINS_6vectorIiNS2_IiEEEEEENS_16reverse_iteratorIPS5_EEEEED2B7v160006Ev, symObjAddr: 0x7EA0, symBinAddr: 0x10000AD38, symSize: 0x50 }
  - { offsetInCU: 0x13107, offset: 0x13107, size: 0x8, addend: 0x0, symName: __ZNKSt3__129_AllocatorDestroyRangeReverseINS_9allocatorINS_6vectorIiNS1_IiEEEEEENS_16reverse_iteratorIPS4_EEEclB7v160006Ev, symObjAddr: 0x7EF0, symBinAddr: 0x10000AD88, symSize: 0xB4 }
  - { offsetInCU: 0x1312D, offset: 0x1312D, size: 0x8, addend: 0x0, symName: __ZNSt3__116reverse_iteratorINS0_IPNS_6vectorIiNS_9allocatorIiEEEEEEEC1B7v160006ES6_, symObjAddr: 0x8014, symBinAddr: 0x10000AEAC, symSize: 0x3C }
  - { offsetInCU: 0x13163, offset: 0x13163, size: 0x8, addend: 0x0, symName: __ZNSt3__116reverse_iteratorINS0_IPNS_6vectorIiNS_9allocatorIiEEEEEEEppB7v160006Ev, symObjAddr: 0x80D4, symBinAddr: 0x10000AF6C, symSize: 0x30 }
  - { offsetInCU: 0x13188, offset: 0x13188, size: 0x8, addend: 0x0, symName: __ZNKSt3__116reverse_iteratorINS0_IPNS_6vectorIiNS_9allocatorIiEEEEEEE4baseB7v160006Ev, symObjAddr: 0x8104, symBinAddr: 0x10000AF9C, symSize: 0x24 }
  - { offsetInCU: 0x131B2, offset: 0x131B2, size: 0x8, addend: 0x0, symName: __ZNSt3__119__to_address_helperINS_16reverse_iteratorINS1_IPNS_6vectorIiNS_9allocatorIiEEEEEEEEvE6__callB7v160006ERKS8_, symObjAddr: 0x8128, symBinAddr: 0x10000AFC0, symSize: 0x38 }
  - { offsetInCU: 0x131D5, offset: 0x131D5, size: 0x8, addend: 0x0, symName: __ZNKSt3__116reverse_iteratorINS0_IPNS_6vectorIiNS_9allocatorIiEEEEEEEptB7v160006Ev, symObjAddr: 0x8160, symBinAddr: 0x10000AFF8, symSize: 0x24 }
  - { offsetInCU: 0x131FA, offset: 0x131FA, size: 0x8, addend: 0x0, symName: __ZNKSt3__116reverse_iteratorINS0_IPNS_6vectorIiNS_9allocatorIiEEEEEEEdeB7v160006Ev, symObjAddr: 0x8184, symBinAddr: 0x10000B01C, symSize: 0x34 }
  - { offsetInCU: 0x1322D, offset: 0x1322D, size: 0x8, addend: 0x0, symName: __ZNSt3__116reverse_iteratorIPNS_6vectorIiNS_9allocatorIiEEEEEmmB7v160006Ev, symObjAddr: 0x81B8, symBinAddr: 0x10000B050, symSize: 0x20 }
  - { offsetInCU: 0x13252, offset: 0x13252, size: 0x8, addend: 0x0, symName: __ZNSt3__116reverse_iteratorINS0_IPNS_6vectorIiNS_9allocatorIiEEEEEEEC2B7v160006ES6_, symObjAddr: 0x81D8, symBinAddr: 0x10000B070, symSize: 0x2C }
  - { offsetInCU: 0x13289, offset: 0x13289, size: 0x8, addend: 0x0, symName: __ZNSt3__116reverse_iteratorIPNS_6vectorIiNS_9allocatorIiEEEEEC2B7v160006ES5_, symObjAddr: 0x8204, symBinAddr: 0x10000B09C, symSize: 0x28 }
  - { offsetInCU: 0x132C0, offset: 0x132C0, size: 0x8, addend: 0x0, symName: __ZNSt3__114__split_bufferINS_6vectorIiNS_9allocatorIiEEEERNS2_IS4_EEED2Ev, symObjAddr: 0x822C, symBinAddr: 0x10000B0C4, symSize: 0x8C }
  - { offsetInCU: 0x132EB, offset: 0x132EB, size: 0x8, addend: 0x0, symName: __ZNSt3__114__split_bufferINS_6vectorIiNS_9allocatorIiEEEERNS2_IS4_EEE5clearB7v160006Ev, symObjAddr: 0x82B8, symBinAddr: 0x10000B150, symSize: 0x28 }
  - { offsetInCU: 0x13310, offset: 0x13310, size: 0x8, addend: 0x0, symName: __ZNKSt3__114__split_bufferINS_6vectorIiNS_9allocatorIiEEEERNS2_IS4_EEE8capacityB7v160006Ev, symObjAddr: 0x82E0, symBinAddr: 0x10000B178, symSize: 0x40 }
  - { offsetInCU: 0x13335, offset: 0x13335, size: 0x8, addend: 0x0, symName: __ZNSt3__114__split_bufferINS_6vectorIiNS_9allocatorIiEEEERNS2_IS4_EEE17__destruct_at_endB7v160006EPS4_, symObjAddr: 0x8320, symBinAddr: 0x10000B1B8, symSize: 0x2C }
  - { offsetInCU: 0x13367, offset: 0x13367, size: 0x8, addend: 0x0, symName: __ZNSt3__114__split_bufferINS_6vectorIiNS_9allocatorIiEEEERNS2_IS4_EEE17__destruct_at_endB7v160006EPS4_NS_17integral_constantIbLb0EEE, symObjAddr: 0x834C, symBinAddr: 0x10000B1E4, symSize: 0x80 }
  - { offsetInCU: 0x133A6, offset: 0x133A6, size: 0x8, addend: 0x0, symName: __ZNKSt3__114__split_bufferINS_6vectorIiNS_9allocatorIiEEEERNS2_IS4_EEE9__end_capB7v160006Ev, symObjAddr: 0x83CC, symBinAddr: 0x10000B264, symSize: 0x28 }
  - { offsetInCU: 0x133CB, offset: 0x133CB, size: 0x8, addend: 0x0, symName: __ZNKSt3__117__compressed_pairIPNS_6vectorIiNS_9allocatorIiEEEERNS2_IS4_EEE5firstB7v160006Ev, symObjAddr: 0x83F4, symBinAddr: 0x10000B28C, symSize: 0x24 }
...
